(lp1
(dp2
S'Theta2'
p3
F0.20399999999999999
sS'R4'
p4
F0.000371398
sS'Theta1'
p5
F131.322
sS'R1'
p6
F5.0738700000000003e-05
sS'R2'
p7
F4.1987999999999998e-05
sS'Theta4'
p8
F-42.149999999999999
sS'Drive Current RMS4'
p9
F0.00040676627530364373
sS'Theta8'
p10
F-51.264000000000003
sS'R8'
p11
F0.0018051899999999999
sS'Drive Current RMS1'
p12
F0.0013239999999999999
sS'Drive Current RMS2'
p13
F0.00080555072874493921
sS'Temperature4'
p14
F38.208039579468092
sS'Temperature5'
p15
F38.229746444032145
sS'Temperature2'
p16
F38.146258503401349
sS'Temperature3'
p17
F38.158317872603611
sS'Temperature1'
p18
F38.109338280766842
sS'Drive Current RMS8'
p19
F0.00015171675101214574
sa.