(lp1
(dp2
S'Theta2'
p3
F0.20399999999999999
sS'R4'
p4
F0.000371398
sS'Theta1'
p5
F131.322
sS'R1'
p6
F5.0738700000000003e-05
sS'R2'
p7
F4.1987999999999998e-05
sS'Theta4'
p8
F-42.149999999999999
sS'Drive Current RMS4'
p9
F0.00040676627530364373
sS'Theta8'
p10
F-51.264000000000003
sS'R8'
p11
F0.0018051899999999999
sS'Drive Current RMS1'
p12
F0.0013239999999999999
sS'Drive Current RMS2'
p13
F0.00080555072874493921
sS'Temperature4'
p14
F38.208039579468092
sS'Temperature5'
p15
F38.229746444032145
sS'Temperature2'
p16
F38.146258503401349
sS'Temperature3'
p17
F38.158317872603611
sS'Temperature1'
p18
F38.109338280766842
sS'Drive Current RMS8'
p19
F0.00015171675101214574
sa(dp20
g3
F0.19800000000000001
sg4
F0.00037122000000000001
sg5
F131.52000000000001
sg6
F5.0718199999999998e-05
sg7
F4.1805399999999998e-05
sg8
F-42.167999999999999
sg9
F0.00040669538461538462
sg10
F-51.264000000000003
sg11
F0.00180507
sg12
F0.0013222155870445344
sg13
F0.0008050797672064777
sg14
F39.26494073611974
sg15
F39.290829694323122
sg16
F39.226887086712459
sg17
F39.243855271366165
sg18
F39.234996880848477
sg19
F0.00015171351214574898
sa(dp21
g3
F0.17399999999999999
sg4
F0.00037110000000000002
sg5
F131.71199999999999
sg6
F5.0660500000000001e-05
sg7
F4.16397e-05
sg8
F-42.161999999999999
sg9
F0.00040661368421052635
sg10
F-51.252000000000002
sg11
F0.00180496
sg12
F0.0013200894736842103
sg13
F0.00080456470647773278
sg14
F40.279824010056515
sg15
F40.330421118793254
sg16
F40.231678189817757
sg17
F40.292080452545555
sg18
F40.20314267756126
sg19
F0.00015170357287449393
sa(dp22
g3
F0.13800000000000001
sg4
F0.00037095100000000001
sg5
F131.928
sg6
F5.0589700000000001e-05
sg7
F4.1464600000000003e-05
sg8
F-42.167999999999999
sg9
F0.00040652052631578951
sg10
F-51.252000000000002
sg11
F0.00180496
sg12
F0.0013176692307692308
sg13
F0.00080397982793522279
sg14
F41.28472658705212
sg15
F41.337774984286554
sg16
F41.235826524198629
sg17
F41.276618478944023
sg18
F41.227655562539269
sg19
F0.00015168174089068826
sa(dp23
g3
F0.071999999999999995
sg4
F0.00037080199999999999
sg5
F132.13200000000001
sg6
F5.0507699999999998e-05
sg7
F4.1295099999999997e-05
sg8
F-42.18
sg9
F0.00040642045546558707
sg10
F-51.270000000000003
sg11
F0.00180496
sg12
F0.0013150563765182185
sg13
F0.00080335042510121463
sg14
F42.29706901985508
sg15
F42.3306019539868
sg16
F42.254522533879587
sg17
F42.275764260951711
sg18
F42.229183737787608
sg19
F0.00015167504048582995
sa.