(lp1
(dp2
S'Theta2'
p3
F0.20399999999999999
sS'R4'
p4
F0.000371398
sS'Theta1'
p5
F131.322
sS'R1'
p6
F5.0738700000000003e-05
sS'R2'
p7
F4.1987999999999998e-05
sS'Theta4'
p8
F-42.149999999999999
sS'Drive Current RMS4'
p9
F0.00040676627530364373
sS'Theta8'
p10
F-51.264000000000003
sS'R8'
p11
F0.0018051899999999999
sS'Drive Current RMS1'
p12
F0.0013239999999999999
sS'Drive Current RMS2'
p13
F0.00080555072874493921
sS'Temperature4'
p14
F38.208039579468092
sS'Temperature5'
p15
F38.229746444032145
sS'Temperature2'
p16
F38.146258503401349
sS'Temperature3'
p17
F38.158317872603611
sS'Temperature1'
p18
F38.109338280766842
sS'Drive Current RMS8'
p19
F0.00015171675101214574
sa(dp20
g3
F0.19800000000000001
sg4
F0.00037122000000000001
sg5
F131.52000000000001
sg6
F5.0718199999999998e-05
sg7
F4.1805399999999998e-05
sg8
F-42.167999999999999
sg9
F0.00040669538461538462
sg10
F-51.264000000000003
sg11
F0.00180507
sg12
F0.0013222155870445344
sg13
F0.0008050797672064777
sg14
F39.26494073611974
sg15
F39.290829694323122
sg16
F39.226887086712459
sg17
F39.243855271366165
sg18
F39.234996880848477
sg19
F0.00015171351214574898
sa(dp21
g3
F0.17399999999999999
sg4
F0.00037110000000000002
sg5
F131.71199999999999
sg6
F5.0660500000000001e-05
sg7
F4.16397e-05
sg8
F-42.161999999999999
sg9
F0.00040661368421052635
sg10
F-51.252000000000002
sg11
F0.00180496
sg12
F0.0013200894736842103
sg13
F0.00080456470647773278
sg14
F40.279824010056515
sg15
F40.330421118793254
sg16
F40.231678189817757
sg17
F40.292080452545555
sg18
F40.20314267756126
sg19
F0.00015170357287449393
sa(dp22
g3
F0.13800000000000001
sg4
F0.00037095100000000001
sg5
F131.928
sg6
F5.0589700000000001e-05
sg7
F4.1464600000000003e-05
sg8
F-42.167999999999999
sg9
F0.00040652052631578951
sg10
F-51.252000000000002
sg11
F0.00180496
sg12
F0.0013176692307692308
sg13
F0.00080397982793522279
sg14
F41.28472658705212
sg15
F41.337774984286554
sg16
F41.235826524198629
sg17
F41.276618478944023
sg18
F41.227655562539269
sg19
F0.00015168174089068826
sa(dp23
g3
F0.071999999999999995
sg4
F0.00037080199999999999
sg5
F132.13200000000001
sg6
F5.0507699999999998e-05
sg7
F4.1295099999999997e-05
sg8
F-42.18
sg9
F0.00040642045546558707
sg10
F-51.270000000000003
sg11
F0.00180496
sg12
F0.0013150563765182185
sg13
F0.00080335042510121463
sg14
F42.29706901985508
sg15
F42.3306019539868
sg16
F42.254522533879587
sg17
F42.275764260951711
sg18
F42.229183737787608
sg19
F0.00015167504048582995
sa(dp24
g3
F-0.017999999999999999
sg4
F0.00037068300000000002
sg5
F132.37200000000001
sg6
F5.0401500000000002e-05
sg7
F4.1110699999999999e-05
sg8
F-42.192
sg9
F0.00040632297570850203
sg10
F-51.270000000000003
sg11
F0.0018047199999999999
sg12
F0.001312207894736842
sg13
F0.00080270157894736852
sg14
F43.309738417901073
sg15
F43.335896627797091
sg16
F43.248408446265415
sg17
F43.296690828868549
sg18
F43.257421998109038
sg19
F0.0001516506174089069
sa(dp25
g3
F-0.089999999999999997
sg4
F0.00037056399999999998
sg5
F132.58199999999999
sg6
F5.0287899999999997e-05
sg7
F4.0948600000000003e-05
sg8
F-42.186
sg9
F0.00040621858299595145
sg10
F-51.270000000000003
sg11
F0.0018046
sg12
F0.0013092814777327935
sg13
F0.00080200322874493936
sg14
F44.319609694680494
sg15
F44.349826880705074
sg16
F44.250173119295049
sg17
F44.293421466792637
sg18
F44.221529745042524
sg19
F0.00015164845141700406
sa(dp26
g3
F-0.192
sg4
F0.00037041500000000002
sg5
F132.84
sg6
F5.0163100000000001e-05
sg7
F4.0771700000000001e-05
sg8
F-42.198
sg9
F0.00040610705465587049
sg10
F-51.276000000000003
sg11
F0.0018047199999999999
sg12
F0.0013061733805668017
sg13
F0.00080128304655870445
sg14
F45.335914384639523
sg15
F45.344098205854529
sg16
F45.269751337740026
sg17
F45.30487881649352
sg18
F45.251746931067032
sg19
F0.00015163310728744941
sa(dp27
g3
F-0.318
sg4
F0.00037032599999999998
sg5
F133.07400000000001
sg6
F5.0034599999999997e-05
sg7
F4.0585399999999999e-05
sg8
F-42.216000000000001
sg9
F0.00040599293522267202
sg10
F-51.264000000000003
sg11
F0.0018047199999999999
sg12
F0.001303063056680162
sg13
F0.00080050883603238873
sg14
F46.319159611163265
sg15
F46.358231420508005
sg16
F46.277641894010543
sg17
F46.303668861712033
sg18
F46.262213860144172
sg19
F0.0001516130060728745
sa(dp28
g3
F-0.438
sg4
F0.00037017700000000002
sg5
F133.33799999999999
sg6
F4.9889299999999997e-05
sg7
F4.0423400000000003e-05
sg8
F-42.222000000000001
sg9
F0.00040586778340080974
sg10
F-51.270000000000003
sg11
F0.0018046
sg12
F0.0012997862348178139
sg13
F0.00079970933198380569
sg14
F47.340608341172803
sg15
F47.360112888052676
sg16
F47.274694261523962
sg17
F47.293383505801216
sg18
F47.250235183443117
sg19
F0.00015159722672064777
sa(dp29
g3
F-0.57599999999999996
sg4
F0.00037002699999999999
sg5
F133.59
sg6
F4.9738399999999998e-05
sg7
F4.0238999999999999e-05
sg8
F-42.222000000000001
sg9
F0.00040575128542510118
sg10
F-51.270000000000003
sg11
F0.0018046
sg12
F0.0012963191295546558
sg13
F0.00079889103238866394
sg14
F48.351435705368345
sg15
F48.377340823970115
sg16
F48.289076154806452
sg17
F48.332833957553071
sg18
F48.269600499375741
sg19
F0.00015158231781376517
sa(dp30
g3
F-0.73199999999999998
sg4
F0.00036993799999999999
sg5
F133.88399999999999
sg6
F4.9574499999999998e-05
sg7
F4.0037799999999998e-05
sg8
F-42.240000000000002
sg9
F0.00040561295546558709
sg10
F-51.276000000000003
sg11
F0.0018046
sg12
F0.0012925513157894739
sg13
F0.00079797957489878546
sg14
F49.432084893882596
sg15
F49.451560549313314
sg16
F49.350312109862699
sg17
F49.397253433208476
sg18
F49.315480649188579
sg19
F0.00015156610323886641
sa(dp31
g3
F-0.876
sg4
F0.00036981900000000002
sg5
F134.16
sg6
F4.9419899999999998e-05
sg7
F3.9842200000000003e-05
sg8
F-42.252000000000002
sg9
F0.00040547484817813771
sg10
F-51.281999999999996
sg11
F0.0018046
sg12
F0.0012888051619433199
sg13
F0.00079703547570850208
sg14
F50.460534493474277
sg15
F50.51541330018641
sg16
F50.39683032939714
sg17
F50.447607209446836
sg18
F50.333934120571769
sg19
F0.00015154146761133604
sa.