(lp1
(dp2
S'Theta'
p3
F9.3239999999999998
sS'R'
F0.00039148500000000001
sS'Temperature Start'
p4
F4.325848297213625
sS'Drive Current RMS'
p5
F0.00040924323886639677
sS'Temperature End'
p6
F4.3286594427244589
sa.