(lp1
(dp2
S'Theta'
p3
F0.12
sS'R'
F0.000156515
sS'Temperature Start'
p4
F90.023551643192462
sS'Drive Current RMS'
p5
F0.00035512204453441297
sS'Temperature End'
p6
F90.043115023474158
sa(dp7
g3
F0.25800000000000001
sS'R'
F0.00015548
sg4
F91.042981220657254
sg5
F0.00035496686234817818
sg6
F91.071882629107947
sa(dp8
g3
F0.378
sS'R'
F0.00015425000000000001
sg4
F92.033053990610298
sg5
F0.00035479503036437251
sg6
F92.036042253521103
sa(dp9
g3
F0.52200000000000002
sS'R'
F0.00015257399999999999
sg4
F93.046288732394345
sg5
F0.00035460914979757087
sg6
F93.078730046948323
sa(dp10
g3
F0.64200000000000002
sS'R'
F0.00015054000000000001
sg4
F94.039584905660348
sg5
F0.00035445007085020241
sg6
F94.062150943396205
sa(dp11
g3
F0.75
sS'R'
F0.00014805100000000001
sg4
F95.043580188679229
sg5
F0.00035427153846153846
sg6
F95.064874999999972
sa(dp12
g3
F0.85799999999999998
sS'R'
F0.00014503399999999999
sg4
F96.048507075471676
sg5
F0.00035409689271255056
sg6
F96.067386792452808
sa.