(lp1
(dp2
S'Theta'
p3
F0.12
sS'R'
F0.000156515
sS'Temperature Start'
p4
F90.023551643192462
sS'Drive Current RMS'
p5
F0.00035512204453441297
sS'Temperature End'
p6
F90.043115023474158
sa(dp7
g3
F0.25800000000000001
sS'R'
F0.00015548
sg4
F91.042981220657254
sg5
F0.00035496686234817818
sg6
F91.071882629107947
sa.