(lp1
(dp2
S'Theta'
p3
F0.12
sS'R'
F0.000156515
sS'Temperature Start'
p4
F90.023551643192462
sS'Drive Current RMS'
p5
F0.00035512204453441297
sS'Temperature End'
p6
F90.043115023474158
sa(dp7
g3
F0.25800000000000001
sS'R'
F0.00015548
sg4
F91.042981220657254
sg5
F0.00035496686234817818
sg6
F91.071882629107947
sa(dp8
g3
F0.378
sS'R'
F0.00015425000000000001
sg4
F92.033053990610298
sg5
F0.00035479503036437251
sg6
F92.036042253521103
sa(dp9
g3
F0.52200000000000002
sS'R'
F0.00015257399999999999
sg4
F93.046288732394345
sg5
F0.00035460914979757087
sg6
F93.078730046948323
sa(dp10
g3
F0.64200000000000002
sS'R'
F0.00015054000000000001
sg4
F94.039584905660348
sg5
F0.00035445007085020241
sg6
F94.062150943396205
sa(dp11
g3
F0.75
sS'R'
F0.00014805100000000001
sg4
F95.043580188679229
sg5
F0.00035427153846153846
sg6
F95.064874999999972
sa(dp12
g3
F0.85799999999999998
sS'R'
F0.00014503399999999999
sg4
F96.048507075471676
sg5
F0.00035409689271255056
sg6
F96.067386792452808
sa(dp13
g3
F0.95999999999999996
sS'R'
F0.00014168899999999999
sg4
F97.040799528301861
sg5
F0.00035393674089068827
sg6
F97.06187971698111
sa(dp14
g3
F1.05
sS'R'
F0.00013762799999999999
sg4
F98.042936320754691
sg5
F0.00035378565789473686
sg6
F98.061816037735824
sa(dp15
g3
F1.1220000000000001
sS'R'
F0.000133292
sg4
F99.05212322274879
sg5
F0.00035357794534412958
sg6
F99.072274881516577
sa(dp16
g3
F1.1699999999999999
sS'R'
F0.00012817300000000001
sg4
F100.04989573459714
sg5
F0.00035339379554655872
sg6
F100.07993838862558
sa(dp17
g3
F1.2
sS'R'
F0.000123189
sg4
F101.05653791469193
sg5
F0.00035322109311740894
sg6
F101.08098341232225
sa(dp18
g3
F1.224
sS'R'
F0.000117422
sg4
F102.05325355450235
sg5
F0.00035304861336032391
sg6
F102.07859952606633
sa(dp19
g3
F1.236
sS'R'
F0.00011203499999999999
sg4
F103.07282938388623
sg5
F0.00035283723684210528
sg6
F103.10084834123221
sa(dp20
g3
F1.254
sS'R'
F0.000107654
sg4
F104.03654976303315
sg5
F0.00035267513157894738
sg6
F104.04706161137439
sa(dp21
g3
F1.278
sS'R'
F0.000103556
sg4
F105.04691943127959
sg5
F0.00035248730769230768
sg6
F105.06383649289097
sa(dp22
g3
F1.296
sS'R'
F0.00010079200000000001
sg4
F106.02853080568718
sg5
F0.00035231157894736841
sg6
F106.0250165876777
sa(dp23
g3
F1.3080000000000001
sS'R'
F9.7755800000000003e-05
sg4
F107.19984123222748
sg5
F0.00035205653846153849
sg6
F107.23302369668244
sa(dp24
g3
F1.3260000000000001
sS'R'
F9.4838899999999998e-05
sg4
F108.11442180094784
sg5
F0.00035187497975708499
sg6
F108.1402654028436
sa(dp25
g3
F1.3440000000000001
sS'R'
F9.2410000000000005e-05
sg4
F109.05238095238094
sg5
F0.00035159183198380569
sg6
F109.06862857142855
sa(dp26
g3
F1.3680000000000001
sS'R'
F9.0379700000000005e-05
sg4
F110.08334047619046
sg5
F0.00035138088056680165
sg6
F110.10512142857141
sa(dp27
g3
F1.3919999999999999
sS'R'
F8.8494700000000005e-05
sg4
F111.0504976190476
sg5
F0.00035115112348178135
sg6
F111.06121666666665
sa(dp28
g3
F1.4219999999999999
sS'R'
F8.6654400000000002e-05
sg4
F112.0426476190476
sg5
F0.00035098167004048582
sg6
F112.04349285714282
sa(dp29
g3
F1.452
sS'R'
F8.4929600000000001e-05
sg4
F113.12319999999998
sg5
F0.00035071214574898784
sg6
F113.13857380952379
sa(dp30
g3
F1.494
sS'R'
F8.3435800000000005e-05
sg4
F114.17888809523808
sg5
F0.00035040501012145747
sg6
F114.17629523809522
sa(dp31
g3
F1.536
sS'R'
F8.2139399999999995e-05
sg4
F115.31415476190475
sg5
F0.00035010587044534419
sg6
F115.31437380952379
sa(dp32
g3
F1.5840000000000001
sS'R'
F8.0977100000000001e-05
sg4
F116.27237380952378
sg5
F0.00034967294534412956
sg6
F116.33527619047618
sa(dp33
g3
F1.6319999999999999
sS'R'
F8.0004800000000004e-05
sg4
F117.21824761904759
sg5
F0.00034919894736842107
sg6
F117.23315238095236
sa(dp34
g3
F1.6619999999999999
sS'R'
F7.9066000000000005e-05
sg4
F118.46122355769229
sg5
F0.00034870658906882595
sg6
F118.51106971153844
sa(dp35
g3
F1.6020000000000001
sS'R'
F7.7982e-05
sg4
F119.20484855769229
sg5
F0.00034822394736842106
sg6
F119.23229567307691
sa(dp36
g3
F1.746
sS'R'
F7.7132599999999994e-05
sg4
F120.23130528846151
sg5
F0.00034706435222672067
sg6
F120.28869230769229
sa(dp37
g3
F1.8120000000000001
sS'R'
F7.6670700000000004e-05
sg4
F121.22369951923075
sg5
F0.00034627652834008096
sg6
F121.24493028846153
sa(dp38
g3
F1.8899999999999999
sS'R'
F7.6160299999999997e-05
sg4
F122.19040144230767
sg5
F0.0003453008704453441
sg6
F122.21198076923073
sa(dp39
g3
F1.9019999999999999
sS'R'
F7.5690899999999997e-05
sg4
F123.15388701923075
sg5
F0.00034489906882591097
sg6
F123.16641346153844
sa(dp40
g3
F1.956
sS'R'
F7.5363099999999997e-05
sg4
F124.58268749999998
sg5
F0.0003443734109311741
sg6
F124.60622115384614
sa.