(lp1
(dp2
S'Theta'
p3
F0.12
sS'R'
F0.000156515
sS'Temperature Start'
p4
F90.023551643192462
sS'Drive Current RMS'
p5
F0.00035512204453441297
sS'Temperature End'
p6
F90.043115023474158
sa(dp7
g3
F0.25800000000000001
sS'R'
F0.00015548
sg4
F91.042981220657254
sg5
F0.00035496686234817818
sg6
F91.071882629107947
sa(dp8
g3
F0.378
sS'R'
F0.00015425000000000001
sg4
F92.033053990610298
sg5
F0.00035479503036437251
sg6
F92.036042253521103
sa(dp9
g3
F0.52200000000000002
sS'R'
F0.00015257399999999999
sg4
F93.046288732394345
sg5
F0.00035460914979757087
sg6
F93.078730046948323
sa(dp10
g3
F0.64200000000000002
sS'R'
F0.00015054000000000001
sg4
F94.039584905660348
sg5
F0.00035445007085020241
sg6
F94.062150943396205
sa(dp11
g3
F0.75
sS'R'
F0.00014805100000000001
sg4
F95.043580188679229
sg5
F0.00035427153846153846
sg6
F95.064874999999972
sa(dp12
g3
F0.85799999999999998
sS'R'
F0.00014503399999999999
sg4
F96.048507075471676
sg5
F0.00035409689271255056
sg6
F96.067386792452808
sa(dp13
g3
F0.95999999999999996
sS'R'
F0.00014168899999999999
sg4
F97.040799528301861
sg5
F0.00035393674089068827
sg6
F97.06187971698111
sa(dp14
g3
F1.05
sS'R'
F0.00013762799999999999
sg4
F98.042936320754691
sg5
F0.00035378565789473686
sg6
F98.061816037735824
sa(dp15
g3
F1.1220000000000001
sS'R'
F0.000133292
sg4
F99.05212322274879
sg5
F0.00035357794534412958
sg6
F99.072274881516577
sa(dp16
g3
F1.1699999999999999
sS'R'
F0.00012817300000000001
sg4
F100.04989573459714
sg5
F0.00035339379554655872
sg6
F100.07993838862558
sa(dp17
g3
F1.2
sS'R'
F0.000123189
sg4
F101.05653791469193
sg5
F0.00035322109311740894
sg6
F101.08098341232225
sa(dp18
g3
F1.224
sS'R'
F0.000117422
sg4
F102.05325355450235
sg5
F0.00035304861336032391
sg6
F102.07859952606633
sa(dp19
g3
F1.236
sS'R'
F0.00011203499999999999
sg4
F103.07282938388623
sg5
F0.00035283723684210528
sg6
F103.10084834123221
sa(dp20
g3
F1.254
sS'R'
F0.000107654
sg4
F104.03654976303315
sg5
F0.00035267513157894738
sg6
F104.04706161137439
sa(dp21
g3
F1.278
sS'R'
F0.000103556
sg4
F105.04691943127959
sg5
F0.00035248730769230768
sg6
F105.06383649289097
sa(dp22
g3
F1.296
sS'R'
F0.00010079200000000001
sg4
F106.02853080568718
sg5
F0.00035231157894736841
sg6
F106.0250165876777
sa(dp23
g3
F1.3080000000000001
sS'R'
F9.7755800000000003e-05
sg4
F107.19984123222748
sg5
F0.00035205653846153849
sg6
F107.23302369668244
sa(dp24
g3
F1.3260000000000001
sS'R'
F9.4838899999999998e-05
sg4
F108.11442180094784
sg5
F0.00035187497975708499
sg6
F108.1402654028436
sa(dp25
g3
F1.3440000000000001
sS'R'
F9.2410000000000005e-05
sg4
F109.05238095238094
sg5
F0.00035159183198380569
sg6
F109.06862857142855
sa(dp26
g3
F1.3680000000000001
sS'R'
F9.0379700000000005e-05
sg4
F110.08334047619046
sg5
F0.00035138088056680165
sg6
F110.10512142857141
sa(dp27
g3
F1.3919999999999999
sS'R'
F8.8494700000000005e-05
sg4
F111.0504976190476
sg5
F0.00035115112348178135
sg6
F111.06121666666665
sa(dp28
g3
F1.4219999999999999
sS'R'
F8.6654400000000002e-05
sg4
F112.0426476190476
sg5
F0.00035098167004048582
sg6
F112.04349285714282
sa(dp29
g3
F1.452
sS'R'
F8.4929600000000001e-05
sg4
F113.12319999999998
sg5
F0.00035071214574898784
sg6
F113.13857380952379
sa(dp30
g3
F1.494
sS'R'
F8.3435800000000005e-05
sg4
F114.17888809523808
sg5
F0.00035040501012145747
sg6
F114.17629523809522
sa(dp31
g3
F1.536
sS'R'
F8.2139399999999995e-05
sg4
F115.31415476190475
sg5
F0.00035010587044534419
sg6
F115.31437380952379
sa(dp32
g3
F1.5840000000000001
sS'R'
F8.0977100000000001e-05
sg4
F116.27237380952378
sg5
F0.00034967294534412956
sg6
F116.33527619047618
sa(dp33
g3
F1.6319999999999999
sS'R'
F8.0004800000000004e-05
sg4
F117.21824761904759
sg5
F0.00034919894736842107
sg6
F117.23315238095236
sa(dp34
g3
F1.6619999999999999
sS'R'
F7.9066000000000005e-05
sg4
F118.46122355769229
sg5
F0.00034870658906882595
sg6
F118.51106971153844
sa(dp35
g3
F1.6020000000000001
sS'R'
F7.7982e-05
sg4
F119.20484855769229
sg5
F0.00034822394736842106
sg6
F119.23229567307691
sa(dp36
g3
F1.746
sS'R'
F7.7132599999999994e-05
sg4
F120.23130528846151
sg5
F0.00034706435222672067
sg6
F120.28869230769229
sa(dp37
g3
F1.8120000000000001
sS'R'
F7.6670700000000004e-05
sg4
F121.22369951923075
sg5
F0.00034627652834008096
sg6
F121.24493028846153
sa(dp38
g3
F1.8899999999999999
sS'R'
F7.6160299999999997e-05
sg4
F122.19040144230767
sg5
F0.0003453008704453441
sg6
F122.21198076923073
sa(dp39
g3
F1.9019999999999999
sS'R'
F7.5690899999999997e-05
sg4
F123.15388701923075
sg5
F0.00034489906882591097
sg6
F123.16641346153844
sa(dp40
g3
F1.956
sS'R'
F7.5363099999999997e-05
sg4
F124.58268749999998
sg5
F0.0003443734109311741
sg6
F124.60622115384614
sa(dp41
g3
F1.9199999999999999
sS'R'
F7.5366799999999998e-05
sg4
F125.18544951923074
sg5
F0.00034411534412955464
sg6
F125.21052884615382
sa(dp42
g3
F1.9139999999999999
sS'R'
F7.5437600000000004e-05
sg4
F126.1304206730769
sg5
F0.00034387650809716597
sg6
F126.15960096153844
sa(dp43
g3
F1.9019999999999999
sS'R'
F7.5277400000000005e-05
sg4
F127.28597115384615
sg5
F0.00034344984817813771
sg6
F127.30774038461537
sa(dp44
g3
F1.8720000000000001
sS'R'
F7.4670200000000002e-05
sg4
F128.11118028846153
sg5
F0.00034275517206477734
sg6
F128.12197115384615
sa(dp45
g3
F2.04
sS'R'
F7.4394500000000001e-05
sg4
F129.21853846153846
sg5
F0.0003411367206477733
sg6
F129.25592307692307
sa(dp46
g3
F2.1419999999999999
sS'R'
F7.4282800000000006e-05
sg4
F130.20360336538459
sg5
F0.00033995422064777328
sg6
F130.22496153846151
sa(dp47
g3
F2.262
sS'R'
F7.4215700000000002e-05
sg4
F131.18394230769229
sg5
F0.00033881883603238867
sg6
F131.20369230769228
sa(dp48
g3
F2.3039999999999998
sS'R'
F7.3980999999999995e-05
sg4
F132.18818749999997
sg5
F0.00033759721659919033
sg6
F132.22620432692304
sa(dp49
g3
F2.3580000000000001
sS'R'
F7.4144899999999995e-05
sg4
F133.3172694174757
sg5
F0.00033649187246963567
sg6
F133.36425485436891
sa(dp50
g3
F2.3700000000000001
sS'R'
F7.3910200000000003e-05
sg4
F135.37597572815531
sg5
F0.00033589187246963565
sg6
F135.69095388349513
sa(dp51
g3
F2.3340000000000001
sS'R'
F7.3668099999999994e-05
sg4
F136.56457281553395
sg5
F0.00033556981781376519
sg6
F136.65383009708736
sa(dp52
g3
F2.3340000000000001
sS'R'
F7.4040600000000004e-05
sg4
F137.29939563106794
sg5
F0.00033531780364372466
sg6
F137.36202184466018
sa(dp53
g3
F2.3580000000000001
sS'R'
F7.4424299999999998e-05
sg4
F137.79836650485436
sg5
F0.00033510685222672062
sg6
F137.45850970873786
sa(dp54
g3
F2.3940000000000001
sS'R'
F7.4841500000000005e-05
sg4
F138.84212621359222
sg5
F0.00033475433198380567
sg6
F138.90299999999999
sa(dp55
g3
F2.4540000000000002
sS'R'
F7.5232699999999995e-05
sg4
F139.44997572815532
sg5
F0.00033451268218623477
sg6
F139.50129368932036
sa(dp56
g3
F2.5019999999999998
sS'R'
F7.5653699999999997e-05
sg4
F140.37713592233007
sg5
F0.00033411303643724697
sg6
F140.41631553398057
sa(dp57
g3
F2.5619999999999998
sS'R'
F7.6383800000000005e-05
sg4
F141.73108980582521
sg5
F0.00033369610323886643
sg6
F141.7843203883495
sa(dp58
g3
F2.6219999999999999
sS'R'
F7.7035700000000005e-05
sg4
F142.12726699029125
sg5
F0.00033352341093117408
sg6
F142.19779368932038
sa(dp59
g3
F2.5379999999999998
sS'R'
F7.6618499999999998e-05
sg4
F143.21621601941746
sg5
F0.000332542995951417
sg6
F143.07060922330095
sa(dp60
g3
F2.6459999999999999
sS'R'
F7.7762200000000006e-05
sg4
F144.48339805825239
sg5
F0.00033199941295546564
sg6
F144.51913834951455
sa(dp61
g3
F2.7480000000000002
sS'R'
F7.9028800000000005e-05
sg4
F145.19101456310679
sg5
F0.0003317201518218624
sg6
F145.16607281553394
sa(dp62
g3
F2.8620000000000001
sS'R'
F8.0533799999999998e-05
sg4
F146.86657524271843
sg5
F0.00033124789473684208
sg6
F146.93691019417471
sa(dp63
g3
F2.964
sS'R'
F8.2027599999999994e-05
sg4
F147.46875485436891
sg5
F0.00033104796558704457
sg6
F147.51781067961161
sa(dp64
g3
F3.1080000000000001
sS'R'
F8.4057899999999994e-05
sg4
F148.32147560975608
sg5
F0.00033066086032388666
sg6
F148.3563658536585
sa(dp65
g3
F3.306
sS'R'
F8.6091899999999995e-05
sg4
F149.24193170731704
sg5
F0.00033005502024291498
sg6
F149.27042195121948
sa(dp66
g3
F3.4260000000000002
sS'R'
F8.7880099999999999e-05
sg4
F150.06865365853656
sg5
F0.00032943079959514169
sg6
F150.09138048780486
sa(dp67
g3
F3.5459999999999998
sS'R'
F8.99327e-05
sg4
F151.48263902439021
sg5
F0.00032859672064777329
sg6
F151.53113414634143
sa(dp68
g3
F3.5819999999999999
sS'R'
F9.05474e-05
sg4
F152.35923170731704
sg5
F0.0003280583198380567
sg6
F152.40004634146339
sa(dp69
g3
F3.4860000000000002
sS'R'
F8.8967800000000006e-05
sg4
F153.61485294117645
sg5
F0.00032746782388663964
sg6
F153.66117156862742
sa(dp70
g3
F3.3540000000000001
sS'R'
F8.6520299999999999e-05
sg4
F154.31741666666665
sg5
F0.00032709347165991905
sg6
F154.35241421568625
sa(dp71
g3
F3.1680000000000001
sS'R'
F8.3111700000000006e-05
sg4
F155.24800490196077
sg5
F0.00032649519230769234
sg6
F155.27595833333331
sa(dp72
g3
F2.952
sS'R'
F7.9725400000000001e-05
sg4
F156.21809558823529
sg5
F0.00032580397773279354
sg6
F156.24498529411764
sa(dp73
g3
F2.742
sS'R'
F7.6793599999999996e-05
sg4
F157.22685539215684
sg5
F0.00032509850202429151
sg6
F157.25294362745097
sa(dp74
g3
F2.556
sS'R'
F7.4685100000000001e-05
sg4
F158.17616666666666
sg5
F0.0003243011538461539
sg6
F158.19707352941174
sa(dp75
g3
F2.3100000000000001
sS'R'
F7.2256199999999994e-05
sg4
F159.25811274509803
sg5
F0.00032361448380566801
sg6
F159.28542156862744
sa(dp76
g3
F2.0640000000000001
sS'R'
F7.0058300000000007e-05
sg4
F160.20188970588234
sg5
F0.00032300302631578948
sg6
F160.22639950980391
sa(dp77
g3
F1.8180000000000001
sS'R'
F6.8072700000000003e-05
sg4
F161.19066666666663
sg5
F0.00032235546558704453
sg6
F161.21324999999999
sa(dp78
g3
F1.542
sS'R'
F6.6035e-05
sg4
F162.18987745098039
sg5
F0.00032180646761133605
sg6
F162.21255637254902
sa(dp79
g3
F1.302
sS'R'
F6.4425599999999995e-05
sg4
F163.1576838235294
sg5
F0.00032113795546558706
sg6
F163.17495833333334
sa(dp80
g3
F1.056
sS'R'
F6.2831199999999996e-05
sg4
F164.15923284313723
sg5
F0.00032049450404858298
sg6
F164.17740686274507
sa(dp81
g3
F0.83999999999999997
sS'R'
F6.1836599999999997e-05
sg4
F165.14225980392155
sg5
F0.0003195748279352227
sg6
F165.15757107843137
sa(dp82
g3
F0.59399999999999997
sS'R'
F6.0551099999999997e-05
sg4
F166.14130147058822
sg5
F0.00031889442307692306
sg6
F166.16037499999999
sa(dp83
g3
F0.33000000000000002
sS'R'
F5.9310600000000001e-05
sg4
F167.14170098039213
sg5
F0.00031825118421052636
sg6
F167.15817156862744
sa(dp84
g3
F0.066000000000000003
sS'R'
F5.8163199999999999e-05
sg4
F168.14691666666664
sg5
F0.00031761033400809718
sg6
F168.16348522167488
sa(dp85
g3
F-0.19800000000000001
sS'R'
F5.70605e-05
sg4
F169.13279310344825
sg5
F0.00031700405870445348
sg6
F169.15060344827586
sa(dp86
g3
F-0.48599999999999999
sS'R'
F5.5924300000000003e-05
sg4
F170.20739162561574
sg5
F0.00031644685222672068
sg6
F170.22969704433496
sa(dp87
g3
F-0.76800000000000002
sS'R'
F5.4888700000000002e-05
sg4
F171.16955665024628
sg5
F0.00031595232793522269
sg6
F171.19021182266007
sa.