(lp1
(dp2
S'Theta'
p3
F0.60599999999999998
sS'R'
F4.3615899999999997e-05
sS'Temperature Start'
p4
F304.84615979381442
sS'Drive Current RMS'
p5
F0.00023474276315789476
sS'Temperature End'
p6
F304.94350515463918
sa.