(lp1
(dp2
S'Theta'
p3
F-0.029999999999999999
sS'R'
F0.00071424599999999998
sS'Drive Current RMS'
p4
F0.00023813615384615385
sS'Temperature'
p5
F297.25946169232105
sa(dp6
g3
F-0.017999999999999999
sS'R'
F0.00071424599999999998
sg4
F0.00023813809716599193
sg5
F297.25878337246718
sa(dp7
g3
F-0.012
sS'R'
F0.00071418700000000002
sg4
F0.00023813853238866396
sg5
F297.25878337246718
sa(dp8
g3
F-0.017999999999999999
sS'R'
F0.00072539200000000005
sg4
F0.00023814177125506075
sg5
F297.2586137925037
sa(dp9
g3
F-0.012
sS'R'
F0.00071567699999999996
sg4
F0.00023813161943319838
sg5
F297.26188799025999
sa(dp10
g3
F-0.017999999999999999
sS'R'
F0.00071615399999999999
sg4
F0.00023813442307692311
sg5
F297.26296199669537
sa(dp11
g3
F-0.012
sS'R'
F0.00071615399999999999
sg4
F0.00023812556680161945
sg5
F297.26584485607441
sa(dp12
g3
F-0.017999999999999999
sS'R'
F0.00071627300000000002
sg4
F0.00023814047570850202
sg5
F297.26770588746848
sa(dp13
g3
F-0.012
sS'R'
F0.00071621300000000005
sg4
F0.00023814631578947371
sg5
F297.26578832941993
sa(dp14
g3
F-0.012
sS'R'
F0.00071627300000000002
sg4
F0.00023814414979757083
sg5
F297.27143664666494
sa(dp15
g3
F-0.017999999999999999
sS'R'
F0.00071627300000000002
sg4
F0.00023814306680161943
sg5
F297.27143664666494
sa.