(lp1
(dp2
S'Theta'
p3
F0.60599999999999998
sS'R'
F4.3615899999999997e-05
sS'Temperature Start'
p4
F304.84615979381442
sS'Drive Current RMS'
p5
F0.00023474276315789476
sS'Temperature End'
p6
F304.94350515463918
sa(dp7
g3
F6.9779999999999998
sS'R'
F2.83663e-05
sg4
F306.14458762886596
sg5
F0.00023470882591093117
sg6
F306.1537113402062
sa.