(lp1
(dp2
S'Theta'
p3
F13.571999999999999
sS'R'
F5.3480499999999997e-05
sS'Temperature Start'
p4
F4.3333219814241488
sS'Drive Current RMS'
p5
F0.00082248031376518224
sS'Temperature End'
p6
F4.3313126934984547
sa.