(lp1
(dp2
S'Theta2'
p3
F0.39600000000000002
sS'R4'
p4
F0.00042793300000000002
sS'Theta1'
p5
F89.682000000000002
sS'R1'
p6
F2.8679299999999998e-05
sS'R2'
p7
F9.1482400000000004e-05
sS'Theta4'
p8
F-22.806000000000001
sS'Drive Current RMS4'
p9
F0.0004091191801619433
sS'Theta8'
p10
F-31.044
sS'R8'
p11
F0.00186206
sS'Drive Current RMS1'
p12
F0.0013994206477732794
sS'Drive Current RMS2'
p13
F0.00082202555668016192
sS'Temperature4'
p14
F4.4103467862481329
sS'Temperature5'
p15
F4.4114319880418513
sS'Temperature2'
p16
F4.4070493273542608
sS'Temperature3'
p17
F4.4083288490283987
sS'Temperature1'
p18
F4.4055754857996972
sS'Drive Current RMS8'
p19
F0.00015212136639676115
sa(dp20
g3
F1.8779999999999999
sg4
F0.00041866499999999998
sg5
F103.794
sg6
F2.9169100000000002e-05
sg7
F8.3230899999999996e-05
sg8
F-22.751999999999999
sg9
F0.00040917754048583002
sg10
F-31.044
sg11
F0.00185192
sg12
F0.00139968016194332
sg13
F0.00082210834008097163
sg14
F4.5218505231689088
sg15
F4.5258834080717536
sg16
F4.5121883408071755
sg17
F4.5152914798206281
sg18
F4.5088908819133033
sg19
F0.00015214687246963563
sa(dp21
g3
F2.8439999999999999
sg4
F0.000413509
sg5
F111.384
sg6
F3.02159e-05
sg7
F7.8566799999999995e-05
sg8
F-22.728000000000002
sg9
F0.00040919720647773279
sg10
F-31.044
sg11
F0.00184644
sg12
F0.0013997926113360323
sg13
F0.00082216280364372468
sg14
F4.6177180232558177
sg15
F4.6205872093023261
sg16
F4.6131162790697697
sg17
F4.6153430232558188
sg18
F4.6126627906976765
sg19
F0.00015216891700404859
sa(dp22
g3
F3.5939999999999999
sg4
F0.00040978400000000001
sg5
F116.48399999999999
sg6
F3.1257300000000003e-05
sg7
F7.5251299999999996e-05
sg8
F-22.710000000000001
sg9
F0.00040923329959514172
sg10
F-31.044
sg11
F0.00184239
sg12
F0.0013998163967611336
sg13
F0.00082220862348178145
sg14
F4.7227470930232522
sg15
F4.7272354651162756
sg16
F4.7160697674418568
sg17
F4.7203720930232533
sg18
F4.7138808139534847
sg19
F0.00015218858299595141
sa(dp23
g3
F4.0499999999999998
sg4
F0.00040775700000000002
sg5
F119.06399999999999
sg6
F3.1925999999999999e-05
sg7
F7.3455700000000002e-05
sg8
F-22.692
sg9
F0.000409225516194332
sg10
F-31.044
sg11
F0.00184012
sg12
F0.0013998228744939271
sg13
F0.00082219154858299598
sg14
F4.8361257142857133
sg15
F4.8404628571428567
sg16
F4.8302657142857113
sg17
F4.8334914285714241
sg18
F4.824888571428569
sg19
F0.00015219485829959513
sa(dp24
g3
F4.5659999999999998
sg4
F0.00040543300000000002
sg5
F121.878
sg6
F3.2762300000000003e-05
sg7
F7.1410599999999997e-05
sg8
F-22.698
sg9
F0.00040923762145748992
sg10
F-31.044
sg11
F0.00183774
sg12
F0.0013997882591093116
sg13
F0.00082222569838056681
sg14
F4.9255971428571383
sg15
F4.9270057142857144
sg16
F4.9169199999999984
sg17
F4.9212571428571419
sg18
F4.9125457142857147
sg19
F0.00015219183198380567
sa(dp25
g3
F5.0460000000000003
sg4
F0.00040349599999999999
sg5
F124.128
sg6
F3.3516699999999997e-05
sg7
F6.9704399999999996e-05
sg8
F-22.692
sg9
F0.00040924237854251015
sg10
F-31.056000000000001
sg11
F0.00183559
sg12
F0.0013998445344129556
sg13
F0.00082222030364372477
sg14
F5.0308744710860367
sg15
F5.0379774330042322
sg16
F5.0232976022566973
sg17
F5.0264823695345529
sg18
F5.0130098730606472
sg19
F0.00015219636639676113
sa(dp26
g3
F5.3579999999999997
sg4
F0.00040236299999999998
sg5
F125.48999999999999
sg6
F3.4019600000000002e-05
sg7
F6.8650099999999995e-05
sg8
F-22.673999999999999
sg9
F0.00040924453441295547
sg10
F-31.038
sg11
F0.00183428
sg12
F0.0013998207489878541
sg13
F0.00082223412955465599
sg14
F5.1330493653032452
sg15
F5.1367108603667111
sg16
F5.1214442877291928
sg17
F5.1269365303243966
sg18
F5.1176361071932268
sg19
F0.00015219918016194333
sa(dp27
g3
F5.7359999999999998
sg4
F0.00040084300000000001
sg5
F127.104
sg6
F3.46585e-05
sg7
F6.7346299999999996e-05
sg8
F-22.667999999999999
sg9
F0.00040924951417004051
sg10
F-31.044
sg11
F0.0018326099999999999
sg12
F0.0013998315789473684
sg13
F0.00082223953441295551
sg14
F5.2338377622377621
sg15
F5.239102097902097
sg16
F5.224072727272727
sg17
F5.2308979020978992
sg18
F5.2160139860139827
sg19
F0.00015220523279352226
sa(dp28
g3
F6.0839999999999996
sg4
F0.00039962100000000001
sg5
F128.352
sg6
F3.5194899999999997e-05
sg7
F6.6280799999999997e-05
sg8
F-22.667999999999999
sg9
F0.00040926723684210528
sg10
F-31.056000000000001
sg11
F0.0018314200000000001
sg12
F0.0013999094129554656
sg13
F0.0008222656882591094
sg14
F5.3300727272727242
sg15
F5.3355916083916108
sg16
F5.322668531468528
sg17
F5.3259720279720284
sg18
F5.3155888111888112
sg19
F0.00015221062753036438
sa.