(lp1
(dp2
S'Theta2'
p3
F0.39600000000000002
sS'R4'
p4
F0.00042793300000000002
sS'Theta1'
p5
F89.682000000000002
sS'R1'
p6
F2.8679299999999998e-05
sS'R2'
p7
F9.1482400000000004e-05
sS'Theta4'
p8
F-22.806000000000001
sS'Drive Current RMS4'
p9
F0.0004091191801619433
sS'Theta8'
p10
F-31.044
sS'R8'
p11
F0.00186206
sS'Drive Current RMS1'
p12
F0.0013994206477732794
sS'Drive Current RMS2'
p13
F0.00082202555668016192
sS'Temperature4'
p14
F4.4103467862481329
sS'Temperature5'
p15
F4.4114319880418513
sS'Temperature2'
p16
F4.4070493273542608
sS'Temperature3'
p17
F4.4083288490283987
sS'Temperature1'
p18
F4.4055754857996972
sS'Drive Current RMS8'
p19
F0.00015212136639676115
sa(dp20
g3
F1.8779999999999999
sg4
F0.00041866499999999998
sg5
F103.794
sg6
F2.9169100000000002e-05
sg7
F8.3230899999999996e-05
sg8
F-22.751999999999999
sg9
F0.00040917754048583002
sg10
F-31.044
sg11
F0.00185192
sg12
F0.00139968016194332
sg13
F0.00082210834008097163
sg14
F4.5218505231689088
sg15
F4.5258834080717536
sg16
F4.5121883408071755
sg17
F4.5152914798206281
sg18
F4.5088908819133033
sg19
F0.00015214687246963563
sa(dp21
g3
F2.8439999999999999
sg4
F0.000413509
sg5
F111.384
sg6
F3.02159e-05
sg7
F7.8566799999999995e-05
sg8
F-22.728000000000002
sg9
F0.00040919720647773279
sg10
F-31.044
sg11
F0.00184644
sg12
F0.0013997926113360323
sg13
F0.00082216280364372468
sg14
F4.6177180232558177
sg15
F4.6205872093023261
sg16
F4.6131162790697697
sg17
F4.6153430232558188
sg18
F4.6126627906976765
sg19
F0.00015216891700404859
sa(dp22
g3
F3.5939999999999999
sg4
F0.00040978400000000001
sg5
F116.48399999999999
sg6
F3.1257300000000003e-05
sg7
F7.5251299999999996e-05
sg8
F-22.710000000000001
sg9
F0.00040923329959514172
sg10
F-31.044
sg11
F0.00184239
sg12
F0.0013998163967611336
sg13
F0.00082220862348178145
sg14
F4.7227470930232522
sg15
F4.7272354651162756
sg16
F4.7160697674418568
sg17
F4.7203720930232533
sg18
F4.7138808139534847
sg19
F0.00015218858299595141
sa(dp23
g3
F4.0499999999999998
sg4
F0.00040775700000000002
sg5
F119.06399999999999
sg6
F3.1925999999999999e-05
sg7
F7.3455700000000002e-05
sg8
F-22.692
sg9
F0.000409225516194332
sg10
F-31.044
sg11
F0.00184012
sg12
F0.0013998228744939271
sg13
F0.00082219154858299598
sg14
F4.8361257142857133
sg15
F4.8404628571428567
sg16
F4.8302657142857113
sg17
F4.8334914285714241
sg18
F4.824888571428569
sg19
F0.00015219485829959513
sa(dp24
g3
F4.5659999999999998
sg4
F0.00040543300000000002
sg5
F121.878
sg6
F3.2762300000000003e-05
sg7
F7.1410599999999997e-05
sg8
F-22.698
sg9
F0.00040923762145748992
sg10
F-31.044
sg11
F0.00183774
sg12
F0.0013997882591093116
sg13
F0.00082222569838056681
sg14
F4.9255971428571383
sg15
F4.9270057142857144
sg16
F4.9169199999999984
sg17
F4.9212571428571419
sg18
F4.9125457142857147
sg19
F0.00015219183198380567
sa(dp25
g3
F5.0460000000000003
sg4
F0.00040349599999999999
sg5
F124.128
sg6
F3.3516699999999997e-05
sg7
F6.9704399999999996e-05
sg8
F-22.692
sg9
F0.00040924237854251015
sg10
F-31.056000000000001
sg11
F0.00183559
sg12
F0.0013998445344129556
sg13
F0.00082222030364372477
sg14
F5.0308744710860367
sg15
F5.0379774330042322
sg16
F5.0232976022566973
sg17
F5.0264823695345529
sg18
F5.0130098730606472
sg19
F0.00015219636639676113
sa(dp26
g3
F5.3579999999999997
sg4
F0.00040236299999999998
sg5
F125.48999999999999
sg6
F3.4019600000000002e-05
sg7
F6.8650099999999995e-05
sg8
F-22.673999999999999
sg9
F0.00040924453441295547
sg10
F-31.038
sg11
F0.00183428
sg12
F0.0013998207489878541
sg13
F0.00082223412955465599
sg14
F5.1330493653032452
sg15
F5.1367108603667111
sg16
F5.1214442877291928
sg17
F5.1269365303243966
sg18
F5.1176361071932268
sg19
F0.00015219918016194333
sa(dp27
g3
F5.7359999999999998
sg4
F0.00040084300000000001
sg5
F127.104
sg6
F3.46585e-05
sg7
F6.7346299999999996e-05
sg8
F-22.667999999999999
sg9
F0.00040924951417004051
sg10
F-31.044
sg11
F0.0018326099999999999
sg12
F0.0013998315789473684
sg13
F0.00082223953441295551
sg14
F5.2338377622377621
sg15
F5.239102097902097
sg16
F5.224072727272727
sg17
F5.2308979020978992
sg18
F5.2160139860139827
sg19
F0.00015220523279352226
sa(dp28
g3
F6.0839999999999996
sg4
F0.00039962100000000001
sg5
F128.352
sg6
F3.5194899999999997e-05
sg7
F6.6280799999999997e-05
sg8
F-22.667999999999999
sg9
F0.00040926723684210528
sg10
F-31.056000000000001
sg11
F0.0018314200000000001
sg12
F0.0013999094129554656
sg13
F0.0008222656882591094
sg14
F5.3300727272727242
sg15
F5.3355916083916108
sg16
F5.322668531468528
sg17
F5.3259720279720284
sg18
F5.3155888111888112
sg19
F0.00015221062753036438
sa(dp29
g3
F6.3719999999999999
sg4
F0.00039851900000000001
sg5
F129.45599999999999
sg6
F3.56904e-05
sg7
F6.5364399999999994e-05
sg8
F-22.655999999999999
sg9
F0.00040927738866396765
sg10
F-31.038
sg11
F0.00183023
sg12
F0.0013999331983805669
sg13
F0.00082226871457489873
sg14
F5.4258723994452129
sg15
F5.4337919556172007
sg16
F5.4194646324549254
sg17
F5.4219500693481262
sg18
F5.4138862690707379
sg19
F0.00015221235829959514
sa(dp30
g3
F6.6900000000000004
sg4
F0.00039750499999999998
sg5
F130.446
sg6
F3.6161600000000003e-05
sg7
F6.4403299999999994e-05
sg8
F-22.655999999999999
sg9
F0.00040927047570850204
sg10
F-31.038
sg11
F0.0018289199999999999
sg12
F0.0013999288461538464
sg13
F0.00082227994939271254
sg14
F5.5382995839112352
sg15
F5.5432288488210837
sg16
F5.5305936199722581
sg17
F5.5348793342579743
sg18
F5.5218474341192758
sg19
F0.00015221646761133604
sa(dp31
g3
F6.96
sg4
F0.00039655199999999999
sg5
F131.376
sg6
F3.6627300000000001e-05
sg7
F6.3628399999999995e-05
sg8
F-22.638000000000002
sg9
F0.00040928517206477731
sg10
F-31.026
sg11
F0.0018280799999999999
sg12
F0.0013999634615384617
sg13
F0.00082229768218623485
sg14
F5.6389160935350731
sg15
F5.6445914718019257
sg16
F5.6245639614855554
sg17
F5.6305969738652015
sg18
F5.6172104539202197
sg19
F0.00015222338056680162
sa(dp32
g3
F7.2599999999999998
sg4
F0.00039559799999999999
sg5
F132.31200000000001
sg6
F3.7102299999999999e-05
sg7
F6.2801399999999998e-05
sg8
F-22.638000000000002
sg9
F0.00040928408906882593
sg10
F-31.032
sg11
F0.00182701
sg12
F0.0013999354251012146
sg13
F0.00082231540485829956
sg14
F5.7340275103163645
sg15
F5.7464869325997263
sg16
F5.7190674002750992
sg17
F5.7247427785419527
sg18
F5.7134250343878961
sg19
F0.00015222252024291497
sa(dp33
g3
F7.4880000000000004
sg4
F0.00039482299999999998
sg5
F132.99000000000001
sg6
F3.7474800000000002e-05
sg7
F6.2116e-05
sg8
F-22.638000000000002
sg9
F0.00040930245951417005
sg10
F-31.056000000000001
sg11
F0.00182606
sg12
F0.0013999223684210528
sg13
F0.00082231108299595141
sg14
F5.8318087431693941
sg15
F5.8372349726775923
sg16
F5.8206393442622906
sg17
F5.8256393442622922
sg18
F5.8148251366120203
sg19
F0.00015223051619433199
sa(dp34
g3
F7.71
sg4
F0.00039404799999999998
sg5
F133.66800000000001
sg6
F3.7877099999999997e-05
sg7
F6.1486400000000001e-05
sg8
F-22.638000000000002
sg9
F0.00040929489878542509
sg10
F-31.032
sg11
F0.0018253399999999999
sg12
F0.0013999245951417006
sg13
F0.00082230286437246967
sg14
F5.9303114754098312
sg15
F5.9330437158469955
sg16
F5.916980874316935
sg17
F5.9225464480874308
sg18
F5.9116967213114737
sg19
F0.00015223116396761134
sa(dp35
g3
F7.9139999999999997
sg4
F0.00039345200000000003
sg5
F134.208
sg6
F3.8204899999999997e-05
sg7
F6.09572e-05
sg8
F-22.626000000000001
sg9
F0.00040927761133603241
sg10
F-31.032
sg11
F0.0018246200000000001
sg12
F0.0013998445344129556
sg13
F0.00082227822874493929
sg14
F6.0368149755832832
sg15
F6.0376614215952209
sg16
F6.029563212154093
sg17
F6.0331524688008642
sg18
F6.0225203472599009
sg19
F0.00015222575910931173
sa(dp36
g3
F8.1479999999999997
sg4
F0.000392796
sg5
F134.79599999999999
sg6
F3.8568200000000001e-05
sg7
F6.0375999999999999e-05
sg8
F-22.632000000000001
sg9
F0.00040926961538461542
sg10
F-31.038
sg11
F0.00182391
sg12
F0.001399853137651822
sg13
F0.00082227217611336031
sg14
F6.1353635377102549
sg15
F6.1387438958220271
sg16
F6.1300108518719494
sg17
F6.1295876288659805
sg18
F6.1223005968529565
sg19
F0.00015221128542510122
sa(dp37
g3
F8.3640000000000008
sg4
F0.00039217100000000002
sg5
F135.28800000000001
sg6
F3.8884799999999997e-05
sg7
F5.9846999999999998e-05
sg8
F-22.608000000000001
sg9
F0.0004092849595141701
sg10
F-31.038
sg11
F0.0018233100000000001
sg12
F0.0013998943319838057
sg13
F0.00082227844129554662
sg14
F6.2367254476397145
sg15
F6.2442268041237083
sg16
F6.2250027129679877
sg17
F6.2292620727075416
sg18
F6.2178187737384691
sg19
F0.00015222078947368421
sa(dp38
g3
F8.5800000000000001
sg4
F0.00039160399999999999
sg5
F135.852
sg6
F3.9238700000000001e-05
sg7
F5.9314300000000002e-05
sg8
F-22.614000000000001
sg9
F0.0004092931680161943
sg10
F-31.044
sg11
F0.0018226
sg12
F0.001399853137651822
sg13
F0.00082231215587044541
sg14
F6.3316115029842654
sg15
F6.3399565925122081
sg16
F6.3172463374932164
sg17
F6.3248534997287038
sg18
F6.3108383071079741
sg19
F0.00015222360323886641
sa(dp39
g3
F8.7720000000000002
sg4
F0.00039100799999999998
sg5
F136.33199999999999
sg6
F3.9551600000000003e-05
sg7
F5.8852399999999999e-05
sg8
F-22.602
sg9
F0.00040929748987854255
sg10
F-31.032
sg11
F0.0018220000000000001
sg12
F0.0013998272267206477
sg13
F0.00082230156882591096
sg14
F6.4370265870862742
sg15
F6.4427997829625605
sg16
F6.4199484536082476
sg17
F6.4305127509495392
sg18
F6.4174850786760738
sg19
F0.00015222402834008097
sa(dp40
g3
F8.9879999999999995
sg4
F0.00039041199999999997
sg5
F136.77600000000001
sg6
F3.9851500000000003e-05
sg7
F5.8319699999999997e-05
sg8
F-22.614000000000001
sg9
F0.00040928085020242917
sg10
F-31.044
sg11
F0.0018212899999999999
sg12
F0.0013998704453441295
sg13
F0.00082227627530364385
sg14
F6.5312158469945372
sg15
F6.5320655737704918
sg16
F6.5225983606557367
sg17
F6.5297622950819694
sg18
F6.5198333333333318
sg19
F0.00015221776315789474
sa(dp41
g3
F9.2100000000000009
sg4
F0.00038981600000000002
sg5
F137.274
sg6
F4.0183099999999998e-05
sg7
F5.7824200000000001e-05
sg8
F-22.602
sg9
F0.00040929511133603241
sg10
F-31.038
sg11
F0.00182069
sg12
F0.0013998337044534412
sg13
F0.00082229011133603234
sg14
F6.6396120218579249
sg15
F6.6506393442622924
sg16
F6.6305327868852428
sg17
F6.6329453551912545
sg18
F6.6173087431693975
sg19
F0.00015222057692307691
sa(dp42
g3
F9.3420000000000005
sg4
F0.00038948800000000001
sg5
F137.52000000000001
sg6
F4.0363800000000001e-05
sg7
F5.7522399999999997e-05
sg8
F-22.602
sg9
F0.00040929944331983805
sg10
F-31.032
sg11
F0.00182033
sg12
F0.0013998877530364373
sg13
F0.00082229140688259105
sg14
F6.7336830601092874
sg15
F6.7327595628415287
sg16
F6.7236120218579263
sg17
F6.7297103825136633
sg18
F6.7182923497267728
sg19
F0.00015222338056680162
sa(dp43
g3
F9.4860000000000007
sg4
F0.00038913100000000003
sg5
F137.81399999999999
sg6
F4.0596599999999997e-05
sg7
F5.72058e-05
sg8
F-22.608000000000001
sg9
F0.00040928884615384616
sg10
F-31.038
sg11
F0.0018199799999999999
sg12
F0.0013998359311740891
sg13
F0.00082229919028340077
sg14
F6.8330355191256853
sg15
F6.8422540983606526
sg16
F6.8183551912568277
sg17
F6.8227868852459022
sg18
F6.8186393442622943
sg19
F0.00015222446356275306
sa(dp44
g3
F9.6539999999999999
sg4
F0.00038868399999999998
sg5
F138.16200000000001
sg6
F4.0834999999999998e-05
sg7
F5.4609299999999999e-05
sg8
F-22.608000000000001
sg9
F0.00040930376518218624
sg10
F-31.038
sg11
F0.0018196200000000001
sg12
F0.0013998013157894738
sg13
F0.00082230826923076919
sg14
F6.9356857923497293
sg15
F6.936467213114752
sg16
F6.9312540983606548
sg17
F6.9342677595628412
sg18
F6.9212213114754118
sg19
F0.00015223138663967613
sa(dp45
g3
F9.798
sg4
F0.000388296
sg5
F138.44399999999999
sg6
F4.1071600000000002e-05
sg7
F5.4609299999999999e-05
sg8
F-22.59
sg9
F0.00040930441295546565
sg10
F-31.026
sg11
F0.0018191399999999999
sg12
F0.0013997990890688261
sg13
F0.00082230675101214578
sg14
F7.038970258136926
sg15
F7.0464001122334485
sg16
F7.0302665544332239
sg17
F7.0329994388327695
sg18
F7.0245510662177315
sg19
F0.00015223224696356275
sa(dp46
g3
F9.9179999999999993
sg4
F0.00038796799999999998
sg5
F138.702
sg6
F4.1261499999999998e-05
sg7
F5.4609299999999999e-05
sg8
F-22.602
sg9
F0.00040930483805668019
sg10
F-31.044
sg11
F0.0018187800000000001
sg12
F0.0013998726720647772
sg13
F0.0008222983299595142
sg14
F7.1354657687991043
sg15
F7.137286756453423
sg16
F7.1255611672278345
sg17
F7.1298933782267122
sg18
F7.1198821548821538
sg19
F0.00015223462550607289
sa(dp47
g3
F10.068
sg4
F0.00038758100000000001
sg5
F138.96000000000001
sg6
F4.1468299999999997e-05
sg7
F5.4609299999999999e-05
sg8
F-22.584
sg9
F0.00040930592105263162
sg10
F-31.038
sg11
F0.0018183100000000001
sg12
F0.0013997969635627533
sg13
F0.00082229854251012152
sg14
F7.2374943883277219
sg15
F7.2349831649831629
sg16
F7.2288664421997781
sg17
F7.2351290684624043
sg18
F7.2205274971941638
sg19
F0.00015223527327935224
sa(dp48
g3
F10.206
sg4
F0.000387253
sg5
F139.23599999999999
sg6
F4.1675099999999997e-05
sg7
F5.4609299999999999e-05
sg8
F-22.59
sg9
F0.00040930354251012148
sg10
F-31.026
sg11
F0.00181795
sg12
F0.0013998553643724697
sg13
F0.00082230351214574902
sg14
F7.3312261503928182
sg15
F7.3390179573512935
sg16
F7.3166245791245776
sg17
F7.3220875420875409
sg18
F7.314003928170596
sg19
F0.00015222402834008097
sa(dp49
g3
F10.368
sg4
F0.00038686599999999998
sg5
F139.5
sg6
F4.1894799999999997e-05
sg7
F5.4609299999999999e-05
sg8
F-22.59
sg9
F0.00040930419028340084
sg10
F-31.050000000000001
sg11
F0.00181759
sg12
F0.0013998163967611336
sg13
F0.00082229140688259105
sg14
F7.4420314253647613
sg15
F7.4387542087542107
sg16
F7.427940516273849
sg17
F7.4356228956228945
sg18
F7.4186531986532014
sg19
F0.00015223527327935224
sa(dp50
g3
F10.494
sg4
F0.00038659799999999999
sg5
F139.69200000000001
sg6
F4.2071799999999999e-05
sg7
F5.4609299999999999e-05
sg8
F-22.59
sg9
F0.00040930894736842112
sg10
F-31.032
sg11
F0.0018173499999999999
sg12
F0.0013998034412955466
sg13
F0.00082230307692307699
sg14
F7.5376372663551443
sg15
F7.5410864485981319
sg16
F7.5310426401869153
sg17
F7.5328621495327086
sg18
F7.5228183411214982
sg19
F0.00015222511133603238
sa.