(lp1
(dp2
S'Theta2'
p3
F0.39600000000000002
sS'R4'
p4
F0.00042793300000000002
sS'Theta1'
p5
F89.682000000000002
sS'R1'
p6
F2.8679299999999998e-05
sS'R2'
p7
F9.1482400000000004e-05
sS'Theta4'
p8
F-22.806000000000001
sS'Drive Current RMS4'
p9
F0.0004091191801619433
sS'Theta8'
p10
F-31.044
sS'R8'
p11
F0.00186206
sS'Drive Current RMS1'
p12
F0.0013994206477732794
sS'Drive Current RMS2'
p13
F0.00082202555668016192
sS'Temperature4'
p14
F4.4103467862481329
sS'Temperature5'
p15
F4.4114319880418513
sS'Temperature2'
p16
F4.4070493273542608
sS'Temperature3'
p17
F4.4083288490283987
sS'Temperature1'
p18
F4.4055754857996972
sS'Drive Current RMS8'
p19
F0.00015212136639676115
sa(dp20
g3
F1.8779999999999999
sg4
F0.00041866499999999998
sg5
F103.794
sg6
F2.9169100000000002e-05
sg7
F8.3230899999999996e-05
sg8
F-22.751999999999999
sg9
F0.00040917754048583002
sg10
F-31.044
sg11
F0.00185192
sg12
F0.00139968016194332
sg13
F0.00082210834008097163
sg14
F4.5218505231689088
sg15
F4.5258834080717536
sg16
F4.5121883408071755
sg17
F4.5152914798206281
sg18
F4.5088908819133033
sg19
F0.00015214687246963563
sa(dp21
g3
F2.8439999999999999
sg4
F0.000413509
sg5
F111.384
sg6
F3.02159e-05
sg7
F7.8566799999999995e-05
sg8
F-22.728000000000002
sg9
F0.00040919720647773279
sg10
F-31.044
sg11
F0.00184644
sg12
F0.0013997926113360323
sg13
F0.00082216280364372468
sg14
F4.6177180232558177
sg15
F4.6205872093023261
sg16
F4.6131162790697697
sg17
F4.6153430232558188
sg18
F4.6126627906976765
sg19
F0.00015216891700404859
sa(dp22
g3
F3.5939999999999999
sg4
F0.00040978400000000001
sg5
F116.48399999999999
sg6
F3.1257300000000003e-05
sg7
F7.5251299999999996e-05
sg8
F-22.710000000000001
sg9
F0.00040923329959514172
sg10
F-31.044
sg11
F0.00184239
sg12
F0.0013998163967611336
sg13
F0.00082220862348178145
sg14
F4.7227470930232522
sg15
F4.7272354651162756
sg16
F4.7160697674418568
sg17
F4.7203720930232533
sg18
F4.7138808139534847
sg19
F0.00015218858299595141
sa.