(lp1
(dp2
S'Theta2'
p3
F0.39600000000000002
sS'R4'
p4
F0.00042793300000000002
sS'Theta1'
p5
F89.682000000000002
sS'R1'
p6
F2.8679299999999998e-05
sS'R2'
p7
F9.1482400000000004e-05
sS'Theta4'
p8
F-22.806000000000001
sS'Drive Current RMS4'
p9
F0.0004091191801619433
sS'Theta8'
p10
F-31.044
sS'R8'
p11
F0.00186206
sS'Drive Current RMS1'
p12
F0.0013994206477732794
sS'Drive Current RMS2'
p13
F0.00082202555668016192
sS'Temperature4'
p14
F4.4103467862481329
sS'Temperature5'
p15
F4.4114319880418513
sS'Temperature2'
p16
F4.4070493273542608
sS'Temperature3'
p17
F4.4083288490283987
sS'Temperature1'
p18
F4.4055754857996972
sS'Drive Current RMS8'
p19
F0.00015212136639676115
sa(dp20
g3
F1.8779999999999999
sg4
F0.00041866499999999998
sg5
F103.794
sg6
F2.9169100000000002e-05
sg7
F8.3230899999999996e-05
sg8
F-22.751999999999999
sg9
F0.00040917754048583002
sg10
F-31.044
sg11
F0.00185192
sg12
F0.00139968016194332
sg13
F0.00082210834008097163
sg14
F4.5218505231689088
sg15
F4.5258834080717536
sg16
F4.5121883408071755
sg17
F4.5152914798206281
sg18
F4.5088908819133033
sg19
F0.00015214687246963563
sa(dp21
g3
F2.8439999999999999
sg4
F0.000413509
sg5
F111.384
sg6
F3.02159e-05
sg7
F7.8566799999999995e-05
sg8
F-22.728000000000002
sg9
F0.00040919720647773279
sg10
F-31.044
sg11
F0.00184644
sg12
F0.0013997926113360323
sg13
F0.00082216280364372468
sg14
F4.6177180232558177
sg15
F4.6205872093023261
sg16
F4.6131162790697697
sg17
F4.6153430232558188
sg18
F4.6126627906976765
sg19
F0.00015216891700404859
sa(dp22
g3
F3.5939999999999999
sg4
F0.00040978400000000001
sg5
F116.48399999999999
sg6
F3.1257300000000003e-05
sg7
F7.5251299999999996e-05
sg8
F-22.710000000000001
sg9
F0.00040923329959514172
sg10
F-31.044
sg11
F0.00184239
sg12
F0.0013998163967611336
sg13
F0.00082220862348178145
sg14
F4.7227470930232522
sg15
F4.7272354651162756
sg16
F4.7160697674418568
sg17
F4.7203720930232533
sg18
F4.7138808139534847
sg19
F0.00015218858299595141
sa(dp23
g3
F4.0499999999999998
sg4
F0.00040775700000000002
sg5
F119.06399999999999
sg6
F3.1925999999999999e-05
sg7
F7.3455700000000002e-05
sg8
F-22.692
sg9
F0.000409225516194332
sg10
F-31.044
sg11
F0.00184012
sg12
F0.0013998228744939271
sg13
F0.00082219154858299598
sg14
F4.8361257142857133
sg15
F4.8404628571428567
sg16
F4.8302657142857113
sg17
F4.8334914285714241
sg18
F4.824888571428569
sg19
F0.00015219485829959513
sa(dp24
g3
F4.5659999999999998
sg4
F0.00040543300000000002
sg5
F121.878
sg6
F3.2762300000000003e-05
sg7
F7.1410599999999997e-05
sg8
F-22.698
sg9
F0.00040923762145748992
sg10
F-31.044
sg11
F0.00183774
sg12
F0.0013997882591093116
sg13
F0.00082222569838056681
sg14
F4.9255971428571383
sg15
F4.9270057142857144
sg16
F4.9169199999999984
sg17
F4.9212571428571419
sg18
F4.9125457142857147
sg19
F0.00015219183198380567
sa(dp25
g3
F5.0460000000000003
sg4
F0.00040349599999999999
sg5
F124.128
sg6
F3.3516699999999997e-05
sg7
F6.9704399999999996e-05
sg8
F-22.692
sg9
F0.00040924237854251015
sg10
F-31.056000000000001
sg11
F0.00183559
sg12
F0.0013998445344129556
sg13
F0.00082222030364372477
sg14
F5.0308744710860367
sg15
F5.0379774330042322
sg16
F5.0232976022566973
sg17
F5.0264823695345529
sg18
F5.0130098730606472
sg19
F0.00015219636639676113
sa(dp26
g3
F5.3579999999999997
sg4
F0.00040236299999999998
sg5
F125.48999999999999
sg6
F3.4019600000000002e-05
sg7
F6.8650099999999995e-05
sg8
F-22.673999999999999
sg9
F0.00040924453441295547
sg10
F-31.038
sg11
F0.00183428
sg12
F0.0013998207489878541
sg13
F0.00082223412955465599
sg14
F5.1330493653032452
sg15
F5.1367108603667111
sg16
F5.1214442877291928
sg17
F5.1269365303243966
sg18
F5.1176361071932268
sg19
F0.00015219918016194333
sa(dp27
g3
F5.7359999999999998
sg4
F0.00040084300000000001
sg5
F127.104
sg6
F3.46585e-05
sg7
F6.7346299999999996e-05
sg8
F-22.667999999999999
sg9
F0.00040924951417004051
sg10
F-31.044
sg11
F0.0018326099999999999
sg12
F0.0013998315789473684
sg13
F0.00082223953441295551
sg14
F5.2338377622377621
sg15
F5.239102097902097
sg16
F5.224072727272727
sg17
F5.2308979020978992
sg18
F5.2160139860139827
sg19
F0.00015220523279352226
sa(dp28
g3
F6.0839999999999996
sg4
F0.00039962100000000001
sg5
F128.352
sg6
F3.5194899999999997e-05
sg7
F6.6280799999999997e-05
sg8
F-22.667999999999999
sg9
F0.00040926723684210528
sg10
F-31.056000000000001
sg11
F0.0018314200000000001
sg12
F0.0013999094129554656
sg13
F0.0008222656882591094
sg14
F5.3300727272727242
sg15
F5.3355916083916108
sg16
F5.322668531468528
sg17
F5.3259720279720284
sg18
F5.3155888111888112
sg19
F0.00015221062753036438
sa(dp29
g3
F6.3719999999999999
sg4
F0.00039851900000000001
sg5
F129.45599999999999
sg6
F3.56904e-05
sg7
F6.5364399999999994e-05
sg8
F-22.655999999999999
sg9
F0.00040927738866396765
sg10
F-31.038
sg11
F0.00183023
sg12
F0.0013999331983805669
sg13
F0.00082226871457489873
sg14
F5.4258723994452129
sg15
F5.4337919556172007
sg16
F5.4194646324549254
sg17
F5.4219500693481262
sg18
F5.4138862690707379
sg19
F0.00015221235829959514
sa(dp30
g3
F6.6900000000000004
sg4
F0.00039750499999999998
sg5
F130.446
sg6
F3.6161600000000003e-05
sg7
F6.4403299999999994e-05
sg8
F-22.655999999999999
sg9
F0.00040927047570850204
sg10
F-31.038
sg11
F0.0018289199999999999
sg12
F0.0013999288461538464
sg13
F0.00082227994939271254
sg14
F5.5382995839112352
sg15
F5.5432288488210837
sg16
F5.5305936199722581
sg17
F5.5348793342579743
sg18
F5.5218474341192758
sg19
F0.00015221646761133604
sa(dp31
g3
F6.96
sg4
F0.00039655199999999999
sg5
F131.376
sg6
F3.6627300000000001e-05
sg7
F6.3628399999999995e-05
sg8
F-22.638000000000002
sg9
F0.00040928517206477731
sg10
F-31.026
sg11
F0.0018280799999999999
sg12
F0.0013999634615384617
sg13
F0.00082229768218623485
sg14
F5.6389160935350731
sg15
F5.6445914718019257
sg16
F5.6245639614855554
sg17
F5.6305969738652015
sg18
F5.6172104539202197
sg19
F0.00015222338056680162
sa(dp32
g3
F7.2599999999999998
sg4
F0.00039559799999999999
sg5
F132.31200000000001
sg6
F3.7102299999999999e-05
sg7
F6.2801399999999998e-05
sg8
F-22.638000000000002
sg9
F0.00040928408906882593
sg10
F-31.032
sg11
F0.00182701
sg12
F0.0013999354251012146
sg13
F0.00082231540485829956
sg14
F5.7340275103163645
sg15
F5.7464869325997263
sg16
F5.7190674002750992
sg17
F5.7247427785419527
sg18
F5.7134250343878961
sg19
F0.00015222252024291497
sa(dp33
g3
F7.4880000000000004
sg4
F0.00039482299999999998
sg5
F132.99000000000001
sg6
F3.7474800000000002e-05
sg7
F6.2116e-05
sg8
F-22.638000000000002
sg9
F0.00040930245951417005
sg10
F-31.056000000000001
sg11
F0.00182606
sg12
F0.0013999223684210528
sg13
F0.00082231108299595141
sg14
F5.8318087431693941
sg15
F5.8372349726775923
sg16
F5.8206393442622906
sg17
F5.8256393442622922
sg18
F5.8148251366120203
sg19
F0.00015223051619433199
sa(dp34
g3
F7.71
sg4
F0.00039404799999999998
sg5
F133.66800000000001
sg6
F3.7877099999999997e-05
sg7
F6.1486400000000001e-05
sg8
F-22.638000000000002
sg9
F0.00040929489878542509
sg10
F-31.032
sg11
F0.0018253399999999999
sg12
F0.0013999245951417006
sg13
F0.00082230286437246967
sg14
F5.9303114754098312
sg15
F5.9330437158469955
sg16
F5.916980874316935
sg17
F5.9225464480874308
sg18
F5.9116967213114737
sg19
F0.00015223116396761134
sa(dp35
g3
F7.9139999999999997
sg4
F0.00039345200000000003
sg5
F134.208
sg6
F3.8204899999999997e-05
sg7
F6.09572e-05
sg8
F-22.626000000000001
sg9
F0.00040927761133603241
sg10
F-31.032
sg11
F0.0018246200000000001
sg12
F0.0013998445344129556
sg13
F0.00082227822874493929
sg14
F6.0368149755832832
sg15
F6.0376614215952209
sg16
F6.029563212154093
sg17
F6.0331524688008642
sg18
F6.0225203472599009
sg19
F0.00015222575910931173
sa(dp36
g3
F8.1479999999999997
sg4
F0.000392796
sg5
F134.79599999999999
sg6
F3.8568200000000001e-05
sg7
F6.0375999999999999e-05
sg8
F-22.632000000000001
sg9
F0.00040926961538461542
sg10
F-31.038
sg11
F0.00182391
sg12
F0.001399853137651822
sg13
F0.00082227217611336031
sg14
F6.1353635377102549
sg15
F6.1387438958220271
sg16
F6.1300108518719494
sg17
F6.1295876288659805
sg18
F6.1223005968529565
sg19
F0.00015221128542510122
sa(dp37
g3
F8.3640000000000008
sg4
F0.00039217100000000002
sg5
F135.28800000000001
sg6
F3.8884799999999997e-05
sg7
F5.9846999999999998e-05
sg8
F-22.608000000000001
sg9
F0.0004092849595141701
sg10
F-31.038
sg11
F0.0018233100000000001
sg12
F0.0013998943319838057
sg13
F0.00082227844129554662
sg14
F6.2367254476397145
sg15
F6.2442268041237083
sg16
F6.2250027129679877
sg17
F6.2292620727075416
sg18
F6.2178187737384691
sg19
F0.00015222078947368421
sa(dp38
g3
F8.5800000000000001
sg4
F0.00039160399999999999
sg5
F135.852
sg6
F3.9238700000000001e-05
sg7
F5.9314300000000002e-05
sg8
F-22.614000000000001
sg9
F0.0004092931680161943
sg10
F-31.044
sg11
F0.0018226
sg12
F0.001399853137651822
sg13
F0.00082231215587044541
sg14
F6.3316115029842654
sg15
F6.3399565925122081
sg16
F6.3172463374932164
sg17
F6.3248534997287038
sg18
F6.3108383071079741
sg19
F0.00015222360323886641
sa(dp39
g3
F8.7720000000000002
sg4
F0.00039100799999999998
sg5
F136.33199999999999
sg6
F3.9551600000000003e-05
sg7
F5.8852399999999999e-05
sg8
F-22.602
sg9
F0.00040929748987854255
sg10
F-31.032
sg11
F0.0018220000000000001
sg12
F0.0013998272267206477
sg13
F0.00082230156882591096
sg14
F6.4370265870862742
sg15
F6.4427997829625605
sg16
F6.4199484536082476
sg17
F6.4305127509495392
sg18
F6.4174850786760738
sg19
F0.00015222402834008097
sa(dp40
g3
F8.9879999999999995
sg4
F0.00039041199999999997
sg5
F136.77600000000001
sg6
F3.9851500000000003e-05
sg7
F5.8319699999999997e-05
sg8
F-22.614000000000001
sg9
F0.00040928085020242917
sg10
F-31.044
sg11
F0.0018212899999999999
sg12
F0.0013998704453441295
sg13
F0.00082227627530364385
sg14
F6.5312158469945372
sg15
F6.5320655737704918
sg16
F6.5225983606557367
sg17
F6.5297622950819694
sg18
F6.5198333333333318
sg19
F0.00015221776315789474
sa(dp41
g3
F9.2100000000000009
sg4
F0.00038981600000000002
sg5
F137.274
sg6
F4.0183099999999998e-05
sg7
F5.7824200000000001e-05
sg8
F-22.602
sg9
F0.00040929511133603241
sg10
F-31.038
sg11
F0.00182069
sg12
F0.0013998337044534412
sg13
F0.00082229011133603234
sg14
F6.6396120218579249
sg15
F6.6506393442622924
sg16
F6.6305327868852428
sg17
F6.6329453551912545
sg18
F6.6173087431693975
sg19
F0.00015222057692307691
sa(dp42
g3
F9.3420000000000005
sg4
F0.00038948800000000001
sg5
F137.52000000000001
sg6
F4.0363800000000001e-05
sg7
F5.7522399999999997e-05
sg8
F-22.602
sg9
F0.00040929944331983805
sg10
F-31.032
sg11
F0.00182033
sg12
F0.0013998877530364373
sg13
F0.00082229140688259105
sg14
F6.7336830601092874
sg15
F6.7327595628415287
sg16
F6.7236120218579263
sg17
F6.7297103825136633
sg18
F6.7182923497267728
sg19
F0.00015222338056680162
sa(dp43
g3
F9.4860000000000007
sg4
F0.00038913100000000003
sg5
F137.81399999999999
sg6
F4.0596599999999997e-05
sg7
F5.72058e-05
sg8
F-22.608000000000001
sg9
F0.00040928884615384616
sg10
F-31.038
sg11
F0.0018199799999999999
sg12
F0.0013998359311740891
sg13
F0.00082229919028340077
sg14
F6.8330355191256853
sg15
F6.8422540983606526
sg16
F6.8183551912568277
sg17
F6.8227868852459022
sg18
F6.8186393442622943
sg19
F0.00015222446356275306
sa(dp44
g3
F9.6539999999999999
sg4
F0.00038868399999999998
sg5
F138.16200000000001
sg6
F4.0834999999999998e-05
sg7
F5.4609299999999999e-05
sg8
F-22.608000000000001
sg9
F0.00040930376518218624
sg10
F-31.038
sg11
F0.0018196200000000001
sg12
F0.0013998013157894738
sg13
F0.00082230826923076919
sg14
F6.9356857923497293
sg15
F6.936467213114752
sg16
F6.9312540983606548
sg17
F6.9342677595628412
sg18
F6.9212213114754118
sg19
F0.00015223138663967613
sa(dp45
g3
F9.798
sg4
F0.000388296
sg5
F138.44399999999999
sg6
F4.1071600000000002e-05
sg7
F5.4609299999999999e-05
sg8
F-22.59
sg9
F0.00040930441295546565
sg10
F-31.026
sg11
F0.0018191399999999999
sg12
F0.0013997990890688261
sg13
F0.00082230675101214578
sg14
F7.038970258136926
sg15
F7.0464001122334485
sg16
F7.0302665544332239
sg17
F7.0329994388327695
sg18
F7.0245510662177315
sg19
F0.00015223224696356275
sa(dp46
g3
F9.9179999999999993
sg4
F0.00038796799999999998
sg5
F138.702
sg6
F4.1261499999999998e-05
sg7
F5.4609299999999999e-05
sg8
F-22.602
sg9
F0.00040930483805668019
sg10
F-31.044
sg11
F0.0018187800000000001
sg12
F0.0013998726720647772
sg13
F0.0008222983299595142
sg14
F7.1354657687991043
sg15
F7.137286756453423
sg16
F7.1255611672278345
sg17
F7.1298933782267122
sg18
F7.1198821548821538
sg19
F0.00015223462550607289
sa(dp47
g3
F10.068
sg4
F0.00038758100000000001
sg5
F138.96000000000001
sg6
F4.1468299999999997e-05
sg7
F5.4609299999999999e-05
sg8
F-22.584
sg9
F0.00040930592105263162
sg10
F-31.038
sg11
F0.0018183100000000001
sg12
F0.0013997969635627533
sg13
F0.00082229854251012152
sg14
F7.2374943883277219
sg15
F7.2349831649831629
sg16
F7.2288664421997781
sg17
F7.2351290684624043
sg18
F7.2205274971941638
sg19
F0.00015223527327935224
sa(dp48
g3
F10.206
sg4
F0.000387253
sg5
F139.23599999999999
sg6
F4.1675099999999997e-05
sg7
F5.4609299999999999e-05
sg8
F-22.59
sg9
F0.00040930354251012148
sg10
F-31.026
sg11
F0.00181795
sg12
F0.0013998553643724697
sg13
F0.00082230351214574902
sg14
F7.3312261503928182
sg15
F7.3390179573512935
sg16
F7.3166245791245776
sg17
F7.3220875420875409
sg18
F7.314003928170596
sg19
F0.00015222402834008097
sa(dp49
g3
F10.368
sg4
F0.00038686599999999998
sg5
F139.5
sg6
F4.1894799999999997e-05
sg7
F5.4609299999999999e-05
sg8
F-22.59
sg9
F0.00040930419028340084
sg10
F-31.050000000000001
sg11
F0.00181759
sg12
F0.0013998163967611336
sg13
F0.00082229140688259105
sg14
F7.4420314253647613
sg15
F7.4387542087542107
sg16
F7.427940516273849
sg17
F7.4356228956228945
sg18
F7.4186531986532014
sg19
F0.00015223527327935224
sa(dp50
g3
F10.494
sg4
F0.00038659799999999999
sg5
F139.69200000000001
sg6
F4.2071799999999999e-05
sg7
F5.4609299999999999e-05
sg8
F-22.59
sg9
F0.00040930894736842112
sg10
F-31.032
sg11
F0.0018173499999999999
sg12
F0.0013998034412955466
sg13
F0.00082230307692307699
sg14
F7.5376372663551443
sg15
F7.5410864485981319
sg16
F7.5310426401869153
sg17
F7.5328621495327086
sg18
F7.5228183411214982
sg19
F0.00015222511133603238
sa(dp51
g3
F10.596
sg4
F0.00038635900000000002
sg5
F139.89599999999999
sg6
F4.2233800000000002e-05
sg7
F5.4609299999999999e-05
sg8
F-22.59
sg9
F0.00040931391700404861
sg10
F-31.038
sg11
F0.001817
sg12
F0.0013998251012145749
sg13
F0.00082230545546558708
sg14
F7.6363726635514029
sg15
F7.6369042056074772
sg16
F7.6297021028037424
sg17
F7.6320911214953249
sg18
F7.6224620327102786
sg19
F0.00015223224696356275
sa(dp52
g3
F10.746
sg4
F0.000385972
sg5
F140.142
sg6
F4.24369e-05
sg7
F5.4521699999999997e-05
sg8
F-22.565999999999999
sg9
F0.00040930808704453444
sg10
F-31.044
sg11
F0.00181664
sg12
F0.0013997602226720649
sg13
F0.00082231670040485837
sg14
F7.7247605140186923
sg15
F7.7335922897196276
sg16
F7.7185835280373825
sg17
F7.7232067757009357
sg18
F7.708311915887851
sg19
F0.00015223894736842106
sa(dp53
g3
F10.859999999999999
sg4
F0.00038573299999999997
sg5
F140.34
sg6
F4.2606399999999999e-05
sg7
F5.4324299999999998e-05
sg8
F-22.584
sg9
F0.00040930527327935222
sg10
F-31.038
sg11
F0.0018163999999999999
sg12
F0.0013997990890688261
sg13
F0.00082231129554655874
sg14
F7.832973130841121
sg15
F7.8386185747663566
sg16
F7.8193282710280396
sg17
F7.8261127336448615
sg18
F7.8126197429906572
sg19
F0.00015223462550607289
sa(dp54
g3
F10.98
sg4
F0.000385435
sg5
F140.53800000000001
sg6
F4.2775899999999998e-05
sg7
F5.4070999999999998e-05
sg8
F-22.577999999999999
sg9
F0.00040930873481781379
sg10
F-31.038
sg11
F0.0018160400000000001
sg12
F0.0013997147773279353
sg13
F0.0008222907591093118
sg14
F7.9531220794392548
sg15
F7.9566092289719652
sg16
F7.9332242990654196
sg17
F7.9422050233644894
sg18
F7.9204877336448609
sg19
F0.00015223181174089069
sa(dp55
g3
F11.058
sg4
F0.00038528599999999998
sg5
F140.65199999999999
sg6
F4.2893199999999998e-05
sg7
F5.3925699999999998e-05
sg8
F-22.577999999999999
sg9
F0.00040930808704453444
sg10
F-31.044
sg11
F0.0018159199999999999
sg12
F0.0013997429149797569
sg13
F0.00082231691295546569
sg14
F8.0234972341733286
sg15
F8.0315150583896777
sg16
F8.019191763982791
sg17
F8.0201075599262488
sg18
F8.0125291948371231
sg19
F0.00015223742914979757
sa(dp56
g3
F11.166
sg4
F0.00038504799999999998
sg5
F140.82599999999999
sg6
F4.3044099999999997e-05
sg7
F5.3730100000000002e-05
sg8
F-22.577999999999999
sg9
F0.00040931413967611332
sg10
F-31.032
sg11
F0.0018156800000000001
sg12
F0.0013997558704453442
sg13
F0.00082230653846153846
sg14
F8.1232022126613384
sg15
F8.1356054087277201
sg16
F8.1172218807621395
sg17
F8.1198524892440069
sg18
F8.1171819299323946
sg19
F0.00015223008097165993
sa(dp57
g3
F11.262
sg4
F0.00038486899999999998
sg5
F140.94
sg6
F4.3150299999999999e-05
sg7
F5.3569899999999997e-05
sg8
F-22.571999999999999
sg9
F0.0004092968421052632
sg10
F-31.038
sg11
F0.0018155599999999999
sg12
F0.0013996758097165993
sg13
F0.00082228795546558707
sg14
F8.2501874615857407
sg15
F8.2522618315918912
sg16
F8.2395789797172725
sg17
F8.2421727105101432
sg18
F8.2264597418561749
sg19
F0.00015223613360323886
sa(dp58
g3
F11.298
sg4
F0.00038475
sg5
F141.018
sg6
F4.3209900000000001e-05
sg7
F5.3484199999999999e-05
sg8
F-22.571999999999999
sg9
F0.0004093206174089069
sg10
F-31.032
sg11
F0.0018154499999999999
sg12
F0.001399662854251012
sg13
F0.00082229184210526318
sg14
F8.3488567916410616
sg15
F8.3667240319606666
sg16
F8.328635525507071
sg17
F8.3431130915795961
sg18
F8.3222556853103899
sg19
F0.00015224283400809717
sa(dp59
g3
F11.304
sg4
F0.00038468999999999998
sg5
F141.054
sg6
F4.3245299999999997e-05
sg7
F5.3435800000000001e-05
sg8
F-22.584
sg9
F0.00040930181174089069
sg10
F-31.044
sg11
F0.00181533
sg12
F0.0013997298582995952
sg13
F0.00082228514170040496
sg14
F8.4521911493546416
sg15
F8.4590903503380428
sg16
F8.4362784265519348
sg17
F8.4453318992009851
sg18
F8.4268254456054077
sg19
F0.00015222878542510123
sa(dp60
g3
F11.31
sg4
F0.00038463100000000002
sg5
F141.12
sg6
F4.3258299999999999e-05
sg7
F5.3376199999999999e-05
sg8
F-22.584
sg9
F0.00040929403846153847
sg10
F-31.044
sg11
F0.00181521
sg12
F0.0013996196356275304
sg13
F0.00082225228744939283
sg14
F8.5306428571428548
sg15
F8.5406298701298731
sg16
F8.5139999999999993
sg17
F8.5220064935064954
sg18
F8.5127370129870172
sg19
F0.00015221625506072877
sa(dp61
g3
F11.273999999999999
sg4
F0.00038465999999999999
sg5
F141.096
sg6
F4.3245299999999997e-05
sg7
F5.3391099999999998e-05
sg8
F-22.596
sg9
F0.00040925988866396764
sg10
F-31.044
sg11
F0.00181521
sg12
F0.0013996088056680161
sg13
F0.00082221252024291505
sg14
F8.6372889610389585
sg15
F8.6450422077922049
sg16
F8.6282727272727247
sg17
F8.6376266233766241
sg18
F8.6192954545454512
sg19
F0.00015221258097165993
sa(dp62
g3
F11.34
sg4
F0.00038460099999999999
sg5
F141.15000000000001
sg6
F4.33328e-05
sg7
F5.33334e-05
sg8
F-22.596
sg9
F0.00040927544534412954
sg10
F-31.050000000000001
sg11
F0.00181533
sg12
F0.001399559008097166
sg13
F0.0008222181376518219
sg14
F8.7384123376623339
sg15
F8.7484837662337682
sg16
F8.7216850649350643
sg17
F8.7327240259740257
sg18
F8.7135097402597381
sg19
F0.00015220327935222674
sa(dp63
g3
F11.388
sg4
F0.000384571
sg5
F141.17400000000001
sg6
F4.3373800000000001e-05
sg7
F5.3309100000000001e-05
sg8
F-22.577999999999999
sg9
F0.00040927306680161945
sg10
F-31.044
sg11
F0.00181533
sg12
F0.0013995504048582997
sg13
F0.00082223153846153847
sg14
F8.8404220779220779
sg15
F8.8454383116883069
sg16
F8.8316590909090866
sg17
F8.8344805194805183
sg18
F8.8263928571428565
sg19
F0.0001522153846153846
sa(dp64
g3
F11.448
sg4
F0.00038448200000000001
sg5
F141.24000000000001
sg6
F4.3446399999999998e-05
sg7
F5.3216e-05
sg8
F-22.571999999999999
sg9
F0.00040927825910931176
sg10
F-31.032
sg11
F0.00181521
sg12
F0.0013995654858299596
sg13
F0.00082224623481781385
sg14
F8.9396948051948044
sg15
F8.947321428571426
sg16
F8.9328668831168834
sg17
F8.9335422077922058
sg18
F8.9223766233766195
sg19
F0.00015221193319838057
sa(dp65
g3
F11.465999999999999
sg4
F0.000384392
sg5
F141.29400000000001
sg6
F4.3511599999999999e-05
sg7
F5.3139600000000002e-05
sg8
F-22.577999999999999
sg9
F0.00040927847165991903
sg10
F-31.062000000000001
sg11
F0.0018150900000000001
sg12
F0.0013995243927125507
sg13
F0.00082222548582995948
sg14
F9.0391174450549396
sg15
F9.0526201923076943
sg16
F9.0263289835164837
sg17
F9.0327438186813129
sg18
F9.0207108516483512
sg19
F0.00015222273279352227
sa(dp66
g3
F11.52
sg4
F0.00038430300000000001
sg5
F141.34800000000001
sg6
F4.3558199999999999e-05
sg7
F5.3076299999999999e-05
sg8
F-22.565999999999999
sg9
F0.00040926918016194328
sg10
F-31.044
sg11
F0.0018150900000000001
sg12
F0.001399453036437247
sg13
F0.00082219479757085023
sg14
F9.1494642857142843
sg15
F9.1499107142857135
sg16
F9.1315041208791179
sg17
F9.1427335164835117
sg18
F9.1246840659340691
sg19
F0.00015220825910931176
sa(dp67
g3
F11.532
sg4
F0.00038427300000000003
sg5
F141.36600000000001
sg6
F4.3582399999999998e-05
sg7
F5.30614e-05
sg8
F-22.584
sg9
F0.0004092661538461539
sg10
F-31.038
sg11
F0.0018150900000000001
sg12
F0.0013994617408906885
sg13
F0.00082220625506072874
sg14
F9.2414045329670316
sg15
F9.2464388736263761
sg16
F9.2217067307692275
sg17
F9.2250927197802177
sg18
F9.222953296703297
sg19
F0.00015220047570850201
sa(dp68
g3
F11.592000000000001
sg4
F0.00038418399999999998
sg5
F141.43799999999999
sg6
F4.3645700000000001e-05
sg7
F5.2973899999999998e-05
sg8
F-22.577999999999999
sg9
F0.00040926550607287449
sg10
F-31.044
sg11
F0.00181485
sg12
F0.0013994271255060729
sg13
F0.0008221893927125506
sg14
F9.3422561813186835
sg15
F9.3459134615384638
sg16
F9.3219368131868166
sg17
F9.3360199175824157
sg18
F9.3165865384615358
sg19
F0.0001522091194331984
sa(dp69
g3
F11.640000000000001
sg4
F0.00038409400000000003
sg5
F141.50399999999999
sg6
F4.3712799999999999e-05
sg7
F5.28882e-05
sg8
F-22.577999999999999
sg9
F0.0004092680971659919
sg10
F-31.044
sg11
F0.00181485
sg12
F0.0013994336032388665
sg13
F0.00082218269230769237
sg14
F9.4418200549450546
sg15
F9.4492616758241752
sg16
F9.4270673076923099
sg17
F9.43464285714286
sg18
F9.4220741758241768
sg19
F0.00015219744939271257
sa(dp70
g3
F11.634
sg4
F0.00038406399999999999
sg5
F141.52199999999999
sg6
F4.3727699999999998e-05
sg7
F5.2871399999999997e-05
sg8
F-22.577999999999999
sg9
F0.00040927133603238871
sg10
F-31.044
sg11
F0.00181485
sg12
F0.0013993989878542511
sg13
F0.00082217901821862347
sg14
F9.5320428156748918
sg15
F9.5437227866473187
sg16
F9.5255914368650263
sg17
F9.522391146589257
sg18
F9.5218251088534078
sg19
F0.00015219918016194333
sa(dp71
g3
F11.694000000000001
sg4
F0.00038400499999999998
sg5
F141.58199999999999
sg6
F4.37966e-05
sg7
F5.2794999999999999e-05
sg8
F-22.565999999999999
sg9
F0.00040926550607287449
sg10
F-31.050000000000001
sg11
F0.00181485
sg12
F0.0013993578947368421
sg13
F0.00082216474696356285
sg14
F9.636487663280116
sg15
F9.6437373004354168
sg16
F9.6268795355587784
sg17
F9.6330007256894081
sg18
F9.620239477503624
sg19
F0.00015220327935222674
sa(dp72
g3
F11.67
sg4
F0.000383975
sg5
F141.59399999999999
sg6
F4.3800300000000001e-05
sg7
F5.2785699999999998e-05
sg8
F-22.577999999999999
sg9
F0.00040925793522267204
sg10
F-31.044
sg11
F0.00181485
sg12
F0.0013992843117408907
sg13
F0.00082214767206477738
sg14
F9.7228955007256879
sg15
F9.7295827285921579
sg16
F9.726897677793902
sg17
F9.7264731494920174
sg18
F9.7204462989840366
sg19
F0.00015219680161943319
sa(dp73
g3
F11.76
sg4
F0.00038385600000000002
sg5
F141.69
sg6
F4.3908400000000001e-05
sg7
F5.2657200000000001e-05
sg8
F-22.577999999999999
sg9
F0.00040923589068825913
sg10
F-31.044
sg11
F0.0018147300000000001
sg12
F0.0013992930161943319
sg13
F0.00082212973684210524
sg14
F9.8511647314949222
sg15
F9.8553084179970938
sg16
F9.8364259796806977
sg17
F9.845185050798257
sg18
F9.8221589259796822
sg19
F0.00015219723684210527
sa(dp74
g3
F11.754
sg4
F0.00038385600000000002
sg5
F141.696
sg6
F4.3927000000000001e-05
sg7
F5.2655299999999997e-05
sg8
F-22.577999999999999
sg9
F0.00040923135627530366
sg10
F-31.044
sg11
F0.0018146099999999999
sg12
F0.0013991956477732795
sg13
F0.00082210769230769238
sg14
F9.9501923076923031
sg15
F9.9520754716981141
sg16
F9.9408236574745974
sg17
F9.9459542815674844
sg18
F9.9304136429608061
sg19
F0.0001521888056680162
sa(dp75
g3
F11.82
sg4
F0.00038373699999999999
sg5
F141.762
sg6
F4.3980999999999998e-05
sg7
F5.2562200000000003e-05
sg8
F-22.577999999999999
sg9
F0.00040922789473684209
sg10
F-31.044
sg11
F0.00181449
sg12
F0.0013991394736842105
sg13
F0.0008221092004048583
sg14
F10.052201834862384
sg15
F10.060038226299694
sg16
F10.04034403669724
sg17
F10.047737003058101
sg18
F10.029629204892959
sg19
F0.00015219183198380567
sa(dp76
g3
F11.837999999999999
sg4
F0.00038367700000000002
sg5
F141.786
sg6
F4.4033199999999997e-05
sg7
F5.2515700000000003e-05
sg8
F-22.584
sg9
F0.00040924000000000001
sg10
F-31.044
sg11
F0.00181449
sg12
F0.001399210829959514
sg13
F0.00082210487854251016
sg14
F10.149384556574923
sg15
F10.150825688073395
sg16
F10.132668195718654
sg17
F10.142339449541279
sg18
F10.12621941896024
sg19
F0.00015218987854251012
sa(dp77
g3
F11.862
sg4
F0.00038364699999999998
sg5
F141.816
sg6
F4.4061099999999997e-05
sg7
F5.2497000000000002e-05
sg8
F-22.59
sg9
F0.00040923415991902834
sg10
F-31.050000000000001
sg11
F0.00181437
sg12
F0.0013991048582995952
sg13
F0.00082210444331983813
sg14
F10.242599388379205
sg15
F10.251185015290515
sg16
F10.229701834862382
sg17
F10.234514525993882
sg18
F10.227022171253818
sg19
F0.00015219312753036437
sa(dp78
g3
F11.916
sg4
F0.000383617
sg5
F141.858
sg6
F4.4094600000000003e-05
sg7
F5.2467199999999998e-05
sg8
F-22.565999999999999
sg9
F0.00040923913967611333
sg10
F-31.056000000000001
sg11
F0.00181449
sg12
F0.0013990810728744939
sg13
F0.00082208780364372469
sg14
F10.329365443425072
sg15
F10.334525993883787
sg16
F10.32445718654434
sg17
F10.327779051987761
sg18
F10.319892966360854
sg19
F0.0001521888056680162
sa(dp79
g3
F11.981999999999999
sg4
F0.00038346799999999998
sg5
F141.94200000000001
sg6
F4.42045e-05
sg7
F5.2336799999999997e-05
sg8
F-22.577999999999999
sg9
F0.00040922897773279352
sg10
F-31.062000000000001
sg11
F0.0018142500000000001
sg12
F0.0013990291497975708
sg13
F0.00082207721659919035
sg14
F10.433100152905199
sg15
F10.441930428134553
sg16
F10.424170489296635
sg17
F10.43032110091743
sg18
F10.418214831804274
sg19
F0.00015218210526315789
sa(dp80
g3
F12.054
sg4
F0.00038331900000000002
sg5
F142.03800000000001
sg6
F4.4292100000000002e-05
sg7
F5.2219499999999997e-05
sg8
F-22.571999999999999
sg9
F0.00040923697368421051
sg10
F-31.056000000000001
sg11
F0.0018142500000000001
sg12
F0.001398998886639676
sg13
F0.0008220679251012146
sg14
F10.54411646586345
sg15
F10.553602409638552
sg16
F10.526602409638553
sg17
F10.53755020080321
sg18
F10.516546184738949
sg19
F0.0001521846963562753
sa(dp81
g3
F12.077999999999999
sg4
F0.00038329
sg5
F142.05600000000001
sg6
F4.4338600000000003e-05
sg7
F5.2193400000000001e-05
sg8
F-22.565999999999999
sg9
F0.00040923524291497978
sg10
F-31.044
sg11
F0.00181413
sg12
F0.0013989663967611335
sg13
F0.00082207894736842108
sg14
F10.640016064257026
sg15
F10.643036144578309
sg16
F10.629903614457827
sg17
F10.635116465863453
sg18
F10.625004016064254
sg19
F0.00015218317813765184
sa(dp82
g3
F12.138
sg4
F0.00038317000000000001
sg5
F142.13399999999999
sg6
F4.4400100000000002e-05
sg7
F5.2094700000000001e-05
sg8
F-22.565999999999999
sg9
F0.00040923308704453445
sg10
F-31.038
sg11
F0.00181402
sg12
F0.0013989036437246963
sg13
F0.00082205581983805663
sg14
F10.736746987951809
sg15
F10.745658634538151
sg16
F10.731329317269072
sg17
F10.735393574297186
sg18
F10.720955823293176
sg19
F0.00015218858299595141
sa(dp83
g3
F12.173999999999999
sg4
F0.00038314099999999998
sg5
F142.18799999999999
sg6
F4.4446700000000003e-05
sg7
F5.2051900000000002e-05
sg8
F-22.571999999999999
sg9
F0.00040922919028340085
sg10
F-31.038
sg11
F0.00181402
sg12
F0.0013988820850202427
sg13
F0.00082206122469635637
sg14
F10.83917269076305
sg15
F10.84350200803213
sg16
F10.834016064257028
sg17
F10.835839357429723
sg18
F10.826927710843373
sg19
F0.00015217950404858299
sa(dp84
g3
F12.204000000000001
sg4
F0.00038305099999999998
sg5
F142.20599999999999
sg6
F4.4506299999999998e-05
sg7
F5.19829e-05
sg8
F-22.565999999999999
sg9
F0.00040922962550607288
sg10
F-31.056000000000001
sg11
F0.0018137800000000001
sg12
F0.0013988063765182188
sg13
F0.00082201864372469637
sg14
F10.927309236947796
sg15
F10.941016064257028
sg16
F10.926056224899602
sg17
F10.924337349397589
sg18
F10.919594377510043
sg19
F0.00015218858299595141
sa(dp85
g3
F12.257999999999999
sg4
F0.000382932
sg5
F142.28999999999999
sg6
F4.4582600000000002e-05
sg7
F5.1895399999999998e-05
sg8
F-22.565999999999999
sg9
F0.000409211032388664
sg10
F-31.044
sg11
F0.0018136599999999999
sg12
F0.0013987263157894739
sg13
F0.00082199226720647777
sg14
F11.029128787878786
sg15
F11.03753787878788
sg16
F11.017112794612796
sg17
F11.020387205387213
sg18
F11.015471380471386
sg19
F0.00015217972672064778
sa(dp86
g3
F12.311999999999999
sg4
F0.00038284199999999999
sg5
F142.33799999999999
sg6
F4.4645999999999999e-05
sg7
F5.1815299999999998e-05
sg8
F-22.565999999999999
sg9
F0.00040920628542510121
sg10
F-31.062000000000001
sg11
F0.0018136599999999999
sg12
F0.001398750101214575
sg13
F0.00082198967611336036
sg14
F11.144486531986532
sg15
F11.146889730639732
sg16
F11.134760101010103
sg17
F11.136456228956231
sg18
F11.124111952861954
sg19
F0.00015217885627530364
sa(dp87
g3
F12.366
sg4
F0.00038278299999999998
sg5
F142.392
sg6
F4.4700000000000002e-05
sg7
F5.1753799999999999e-05
sg8
F-22.565999999999999
sg9
F0.00040921169028340084
sg10
F-31.056000000000001
sg11
F0.0018136599999999999
sg12
F0.0013986246963562754
sg13
F0.0008219840587044534
sg14
F11.243674242424241
sg15
F11.249629629629629
sg16
F11.225159932659933
sg17
F11.238211279461284
sg18
F11.218602693602698
sg19
F0.00015217691295546558
sa(dp88
g3
F12.384
sg4
F0.000382753
sg5
F142.446
sg6
F4.47391e-05
sg7
F5.1724000000000001e-05
sg8
F-22.565999999999999
sg9
F0.00040921298582995949
sg10
F-31.050000000000001
sg11
F0.0018136599999999999
sg12
F0.0013986549595141702
sg13
F0.0008219963765182187
sg14
F11.338985690235695
sg15
F11.350782828282824
sg16
F11.325058922558926
sg17
F11.328333333333333
sg18
F11.319705387205387
sg19
F0.00015218123481781378
sa(dp89
g3
F12.407999999999999
sg4
F0.00038272300000000002
sg5
F142.446
sg6
F4.4761500000000002e-05
sg7
F5.1696100000000001e-05
sg8
F-22.559999999999999
sg9
F0.00040920368421052636
sg10
F-31.050000000000001
sg11
F0.00181354
sg12
F0.0013985252024291499
sg13
F0.00082197497975708498
sg14
F11.43539141414141
sg15
F11.446203703703704
sg16
F11.419440235690235
sg17
F11.423211279461276
sg18
F11.422664141414145
sg19
F0.00015217540485829961
sa(dp90
g3
F12.468
sg4
F0.00038260399999999998
sg5
F142.5
sg6
F4.4832200000000001e-05
sg7
F5.1603e-05
sg8
F-22.559999999999999
sg9
F0.00040920174089068825
sg10
F-31.056000000000001
sg11
F0.00181354
sg12
F0.0013984818825910933
sg13
F0.00082193909919028342
sg14
F11.540269196822589
sg15
F11.55040600176522
sg16
F11.53064430714916
sg17
F11.534483671668134
sg18
F11.52154015887025
sg19
F0.0001521741093117409
sa.