(lp1
(dp2
S'Theta2'
p3
F0.39600000000000002
sS'R4'
p4
F0.00042793300000000002
sS'Theta1'
p5
F89.682000000000002
sS'R1'
p6
F2.8679299999999998e-05
sS'R2'
p7
F9.1482400000000004e-05
sS'Theta4'
p8
F-22.806000000000001
sS'Drive Current RMS4'
p9
F0.0004091191801619433
sS'Theta8'
p10
F-31.044
sS'R8'
p11
F0.00186206
sS'Drive Current RMS1'
p12
F0.0013994206477732794
sS'Drive Current RMS2'
p13
F0.00082202555668016192
sS'Temperature4'
p14
F4.4103467862481329
sS'Temperature5'
p15
F4.4114319880418513
sS'Temperature2'
p16
F4.4070493273542608
sS'Temperature3'
p17
F4.4083288490283987
sS'Temperature1'
p18
F4.4055754857996972
sS'Drive Current RMS8'
p19
F0.00015212136639676115
sa(dp20
g3
F1.8779999999999999
sg4
F0.00041866499999999998
sg5
F103.794
sg6
F2.9169100000000002e-05
sg7
F8.3230899999999996e-05
sg8
F-22.751999999999999
sg9
F0.00040917754048583002
sg10
F-31.044
sg11
F0.00185192
sg12
F0.00139968016194332
sg13
F0.00082210834008097163
sg14
F4.5218505231689088
sg15
F4.5258834080717536
sg16
F4.5121883408071755
sg17
F4.5152914798206281
sg18
F4.5088908819133033
sg19
F0.00015214687246963563
sa(dp21
g3
F2.8439999999999999
sg4
F0.000413509
sg5
F111.384
sg6
F3.02159e-05
sg7
F7.8566799999999995e-05
sg8
F-22.728000000000002
sg9
F0.00040919720647773279
sg10
F-31.044
sg11
F0.00184644
sg12
F0.0013997926113360323
sg13
F0.00082216280364372468
sg14
F4.6177180232558177
sg15
F4.6205872093023261
sg16
F4.6131162790697697
sg17
F4.6153430232558188
sg18
F4.6126627906976765
sg19
F0.00015216891700404859
sa(dp22
g3
F3.5939999999999999
sg4
F0.00040978400000000001
sg5
F116.48399999999999
sg6
F3.1257300000000003e-05
sg7
F7.5251299999999996e-05
sg8
F-22.710000000000001
sg9
F0.00040923329959514172
sg10
F-31.044
sg11
F0.00184239
sg12
F0.0013998163967611336
sg13
F0.00082220862348178145
sg14
F4.7227470930232522
sg15
F4.7272354651162756
sg16
F4.7160697674418568
sg17
F4.7203720930232533
sg18
F4.7138808139534847
sg19
F0.00015218858299595141
sa(dp23
g3
F4.0499999999999998
sg4
F0.00040775700000000002
sg5
F119.06399999999999
sg6
F3.1925999999999999e-05
sg7
F7.3455700000000002e-05
sg8
F-22.692
sg9
F0.000409225516194332
sg10
F-31.044
sg11
F0.00184012
sg12
F0.0013998228744939271
sg13
F0.00082219154858299598
sg14
F4.8361257142857133
sg15
F4.8404628571428567
sg16
F4.8302657142857113
sg17
F4.8334914285714241
sg18
F4.824888571428569
sg19
F0.00015219485829959513
sa(dp24
g3
F4.5659999999999998
sg4
F0.00040543300000000002
sg5
F121.878
sg6
F3.2762300000000003e-05
sg7
F7.1410599999999997e-05
sg8
F-22.698
sg9
F0.00040923762145748992
sg10
F-31.044
sg11
F0.00183774
sg12
F0.0013997882591093116
sg13
F0.00082222569838056681
sg14
F4.9255971428571383
sg15
F4.9270057142857144
sg16
F4.9169199999999984
sg17
F4.9212571428571419
sg18
F4.9125457142857147
sg19
F0.00015219183198380567
sa(dp25
g3
F5.0460000000000003
sg4
F0.00040349599999999999
sg5
F124.128
sg6
F3.3516699999999997e-05
sg7
F6.9704399999999996e-05
sg8
F-22.692
sg9
F0.00040924237854251015
sg10
F-31.056000000000001
sg11
F0.00183559
sg12
F0.0013998445344129556
sg13
F0.00082222030364372477
sg14
F5.0308744710860367
sg15
F5.0379774330042322
sg16
F5.0232976022566973
sg17
F5.0264823695345529
sg18
F5.0130098730606472
sg19
F0.00015219636639676113
sa(dp26
g3
F5.3579999999999997
sg4
F0.00040236299999999998
sg5
F125.48999999999999
sg6
F3.4019600000000002e-05
sg7
F6.8650099999999995e-05
sg8
F-22.673999999999999
sg9
F0.00040924453441295547
sg10
F-31.038
sg11
F0.00183428
sg12
F0.0013998207489878541
sg13
F0.00082223412955465599
sg14
F5.1330493653032452
sg15
F5.1367108603667111
sg16
F5.1214442877291928
sg17
F5.1269365303243966
sg18
F5.1176361071932268
sg19
F0.00015219918016194333
sa(dp27
g3
F5.7359999999999998
sg4
F0.00040084300000000001
sg5
F127.104
sg6
F3.46585e-05
sg7
F6.7346299999999996e-05
sg8
F-22.667999999999999
sg9
F0.00040924951417004051
sg10
F-31.044
sg11
F0.0018326099999999999
sg12
F0.0013998315789473684
sg13
F0.00082223953441295551
sg14
F5.2338377622377621
sg15
F5.239102097902097
sg16
F5.224072727272727
sg17
F5.2308979020978992
sg18
F5.2160139860139827
sg19
F0.00015220523279352226
sa(dp28
g3
F6.0839999999999996
sg4
F0.00039962100000000001
sg5
F128.352
sg6
F3.5194899999999997e-05
sg7
F6.6280799999999997e-05
sg8
F-22.667999999999999
sg9
F0.00040926723684210528
sg10
F-31.056000000000001
sg11
F0.0018314200000000001
sg12
F0.0013999094129554656
sg13
F0.0008222656882591094
sg14
F5.3300727272727242
sg15
F5.3355916083916108
sg16
F5.322668531468528
sg17
F5.3259720279720284
sg18
F5.3155888111888112
sg19
F0.00015221062753036438
sa(dp29
g3
F6.3719999999999999
sg4
F0.00039851900000000001
sg5
F129.45599999999999
sg6
F3.56904e-05
sg7
F6.5364399999999994e-05
sg8
F-22.655999999999999
sg9
F0.00040927738866396765
sg10
F-31.038
sg11
F0.00183023
sg12
F0.0013999331983805669
sg13
F0.00082226871457489873
sg14
F5.4258723994452129
sg15
F5.4337919556172007
sg16
F5.4194646324549254
sg17
F5.4219500693481262
sg18
F5.4138862690707379
sg19
F0.00015221235829959514
sa(dp30
g3
F6.6900000000000004
sg4
F0.00039750499999999998
sg5
F130.446
sg6
F3.6161600000000003e-05
sg7
F6.4403299999999994e-05
sg8
F-22.655999999999999
sg9
F0.00040927047570850204
sg10
F-31.038
sg11
F0.0018289199999999999
sg12
F0.0013999288461538464
sg13
F0.00082227994939271254
sg14
F5.5382995839112352
sg15
F5.5432288488210837
sg16
F5.5305936199722581
sg17
F5.5348793342579743
sg18
F5.5218474341192758
sg19
F0.00015221646761133604
sa(dp31
g3
F6.96
sg4
F0.00039655199999999999
sg5
F131.376
sg6
F3.6627300000000001e-05
sg7
F6.3628399999999995e-05
sg8
F-22.638000000000002
sg9
F0.00040928517206477731
sg10
F-31.026
sg11
F0.0018280799999999999
sg12
F0.0013999634615384617
sg13
F0.00082229768218623485
sg14
F5.6389160935350731
sg15
F5.6445914718019257
sg16
F5.6245639614855554
sg17
F5.6305969738652015
sg18
F5.6172104539202197
sg19
F0.00015222338056680162
sa(dp32
g3
F7.2599999999999998
sg4
F0.00039559799999999999
sg5
F132.31200000000001
sg6
F3.7102299999999999e-05
sg7
F6.2801399999999998e-05
sg8
F-22.638000000000002
sg9
F0.00040928408906882593
sg10
F-31.032
sg11
F0.00182701
sg12
F0.0013999354251012146
sg13
F0.00082231540485829956
sg14
F5.7340275103163645
sg15
F5.7464869325997263
sg16
F5.7190674002750992
sg17
F5.7247427785419527
sg18
F5.7134250343878961
sg19
F0.00015222252024291497
sa(dp33
g3
F7.4880000000000004
sg4
F0.00039482299999999998
sg5
F132.99000000000001
sg6
F3.7474800000000002e-05
sg7
F6.2116e-05
sg8
F-22.638000000000002
sg9
F0.00040930245951417005
sg10
F-31.056000000000001
sg11
F0.00182606
sg12
F0.0013999223684210528
sg13
F0.00082231108299595141
sg14
F5.8318087431693941
sg15
F5.8372349726775923
sg16
F5.8206393442622906
sg17
F5.8256393442622922
sg18
F5.8148251366120203
sg19
F0.00015223051619433199
sa(dp34
g3
F7.71
sg4
F0.00039404799999999998
sg5
F133.66800000000001
sg6
F3.7877099999999997e-05
sg7
F6.1486400000000001e-05
sg8
F-22.638000000000002
sg9
F0.00040929489878542509
sg10
F-31.032
sg11
F0.0018253399999999999
sg12
F0.0013999245951417006
sg13
F0.00082230286437246967
sg14
F5.9303114754098312
sg15
F5.9330437158469955
sg16
F5.916980874316935
sg17
F5.9225464480874308
sg18
F5.9116967213114737
sg19
F0.00015223116396761134
sa(dp35
g3
F7.9139999999999997
sg4
F0.00039345200000000003
sg5
F134.208
sg6
F3.8204899999999997e-05
sg7
F6.09572e-05
sg8
F-22.626000000000001
sg9
F0.00040927761133603241
sg10
F-31.032
sg11
F0.0018246200000000001
sg12
F0.0013998445344129556
sg13
F0.00082227822874493929
sg14
F6.0368149755832832
sg15
F6.0376614215952209
sg16
F6.029563212154093
sg17
F6.0331524688008642
sg18
F6.0225203472599009
sg19
F0.00015222575910931173
sa(dp36
g3
F8.1479999999999997
sg4
F0.000392796
sg5
F134.79599999999999
sg6
F3.8568200000000001e-05
sg7
F6.0375999999999999e-05
sg8
F-22.632000000000001
sg9
F0.00040926961538461542
sg10
F-31.038
sg11
F0.00182391
sg12
F0.001399853137651822
sg13
F0.00082227217611336031
sg14
F6.1353635377102549
sg15
F6.1387438958220271
sg16
F6.1300108518719494
sg17
F6.1295876288659805
sg18
F6.1223005968529565
sg19
F0.00015221128542510122
sa(dp37
g3
F8.3640000000000008
sg4
F0.00039217100000000002
sg5
F135.28800000000001
sg6
F3.8884799999999997e-05
sg7
F5.9846999999999998e-05
sg8
F-22.608000000000001
sg9
F0.0004092849595141701
sg10
F-31.038
sg11
F0.0018233100000000001
sg12
F0.0013998943319838057
sg13
F0.00082227844129554662
sg14
F6.2367254476397145
sg15
F6.2442268041237083
sg16
F6.2250027129679877
sg17
F6.2292620727075416
sg18
F6.2178187737384691
sg19
F0.00015222078947368421
sa(dp38
g3
F8.5800000000000001
sg4
F0.00039160399999999999
sg5
F135.852
sg6
F3.9238700000000001e-05
sg7
F5.9314300000000002e-05
sg8
F-22.614000000000001
sg9
F0.0004092931680161943
sg10
F-31.044
sg11
F0.0018226
sg12
F0.001399853137651822
sg13
F0.00082231215587044541
sg14
F6.3316115029842654
sg15
F6.3399565925122081
sg16
F6.3172463374932164
sg17
F6.3248534997287038
sg18
F6.3108383071079741
sg19
F0.00015222360323886641
sa(dp39
g3
F8.7720000000000002
sg4
F0.00039100799999999998
sg5
F136.33199999999999
sg6
F3.9551600000000003e-05
sg7
F5.8852399999999999e-05
sg8
F-22.602
sg9
F0.00040929748987854255
sg10
F-31.032
sg11
F0.0018220000000000001
sg12
F0.0013998272267206477
sg13
F0.00082230156882591096
sg14
F6.4370265870862742
sg15
F6.4427997829625605
sg16
F6.4199484536082476
sg17
F6.4305127509495392
sg18
F6.4174850786760738
sg19
F0.00015222402834008097
sa(dp40
g3
F8.9879999999999995
sg4
F0.00039041199999999997
sg5
F136.77600000000001
sg6
F3.9851500000000003e-05
sg7
F5.8319699999999997e-05
sg8
F-22.614000000000001
sg9
F0.00040928085020242917
sg10
F-31.044
sg11
F0.0018212899999999999
sg12
F0.0013998704453441295
sg13
F0.00082227627530364385
sg14
F6.5312158469945372
sg15
F6.5320655737704918
sg16
F6.5225983606557367
sg17
F6.5297622950819694
sg18
F6.5198333333333318
sg19
F0.00015221776315789474
sa(dp41
g3
F9.2100000000000009
sg4
F0.00038981600000000002
sg5
F137.274
sg6
F4.0183099999999998e-05
sg7
F5.7824200000000001e-05
sg8
F-22.602
sg9
F0.00040929511133603241
sg10
F-31.038
sg11
F0.00182069
sg12
F0.0013998337044534412
sg13
F0.00082229011133603234
sg14
F6.6396120218579249
sg15
F6.6506393442622924
sg16
F6.6305327868852428
sg17
F6.6329453551912545
sg18
F6.6173087431693975
sg19
F0.00015222057692307691
sa(dp42
g3
F9.3420000000000005
sg4
F0.00038948800000000001
sg5
F137.52000000000001
sg6
F4.0363800000000001e-05
sg7
F5.7522399999999997e-05
sg8
F-22.602
sg9
F0.00040929944331983805
sg10
F-31.032
sg11
F0.00182033
sg12
F0.0013998877530364373
sg13
F0.00082229140688259105
sg14
F6.7336830601092874
sg15
F6.7327595628415287
sg16
F6.7236120218579263
sg17
F6.7297103825136633
sg18
F6.7182923497267728
sg19
F0.00015222338056680162
sa(dp43
g3
F9.4860000000000007
sg4
F0.00038913100000000003
sg5
F137.81399999999999
sg6
F4.0596599999999997e-05
sg7
F5.72058e-05
sg8
F-22.608000000000001
sg9
F0.00040928884615384616
sg10
F-31.038
sg11
F0.0018199799999999999
sg12
F0.0013998359311740891
sg13
F0.00082229919028340077
sg14
F6.8330355191256853
sg15
F6.8422540983606526
sg16
F6.8183551912568277
sg17
F6.8227868852459022
sg18
F6.8186393442622943
sg19
F0.00015222446356275306
sa(dp44
g3
F9.6539999999999999
sg4
F0.00038868399999999998
sg5
F138.16200000000001
sg6
F4.0834999999999998e-05
sg7
F5.4609299999999999e-05
sg8
F-22.608000000000001
sg9
F0.00040930376518218624
sg10
F-31.038
sg11
F0.0018196200000000001
sg12
F0.0013998013157894738
sg13
F0.00082230826923076919
sg14
F6.9356857923497293
sg15
F6.936467213114752
sg16
F6.9312540983606548
sg17
F6.9342677595628412
sg18
F6.9212213114754118
sg19
F0.00015223138663967613
sa(dp45
g3
F9.798
sg4
F0.000388296
sg5
F138.44399999999999
sg6
F4.1071600000000002e-05
sg7
F5.4609299999999999e-05
sg8
F-22.59
sg9
F0.00040930441295546565
sg10
F-31.026
sg11
F0.0018191399999999999
sg12
F0.0013997990890688261
sg13
F0.00082230675101214578
sg14
F7.038970258136926
sg15
F7.0464001122334485
sg16
F7.0302665544332239
sg17
F7.0329994388327695
sg18
F7.0245510662177315
sg19
F0.00015223224696356275
sa(dp46
g3
F9.9179999999999993
sg4
F0.00038796799999999998
sg5
F138.702
sg6
F4.1261499999999998e-05
sg7
F5.4609299999999999e-05
sg8
F-22.602
sg9
F0.00040930483805668019
sg10
F-31.044
sg11
F0.0018187800000000001
sg12
F0.0013998726720647772
sg13
F0.0008222983299595142
sg14
F7.1354657687991043
sg15
F7.137286756453423
sg16
F7.1255611672278345
sg17
F7.1298933782267122
sg18
F7.1198821548821538
sg19
F0.00015223462550607289
sa(dp47
g3
F10.068
sg4
F0.00038758100000000001
sg5
F138.96000000000001
sg6
F4.1468299999999997e-05
sg7
F5.4609299999999999e-05
sg8
F-22.584
sg9
F0.00040930592105263162
sg10
F-31.038
sg11
F0.0018183100000000001
sg12
F0.0013997969635627533
sg13
F0.00082229854251012152
sg14
F7.2374943883277219
sg15
F7.2349831649831629
sg16
F7.2288664421997781
sg17
F7.2351290684624043
sg18
F7.2205274971941638
sg19
F0.00015223527327935224
sa(dp48
g3
F10.206
sg4
F0.000387253
sg5
F139.23599999999999
sg6
F4.1675099999999997e-05
sg7
F5.4609299999999999e-05
sg8
F-22.59
sg9
F0.00040930354251012148
sg10
F-31.026
sg11
F0.00181795
sg12
F0.0013998553643724697
sg13
F0.00082230351214574902
sg14
F7.3312261503928182
sg15
F7.3390179573512935
sg16
F7.3166245791245776
sg17
F7.3220875420875409
sg18
F7.314003928170596
sg19
F0.00015222402834008097
sa(dp49
g3
F10.368
sg4
F0.00038686599999999998
sg5
F139.5
sg6
F4.1894799999999997e-05
sg7
F5.4609299999999999e-05
sg8
F-22.59
sg9
F0.00040930419028340084
sg10
F-31.050000000000001
sg11
F0.00181759
sg12
F0.0013998163967611336
sg13
F0.00082229140688259105
sg14
F7.4420314253647613
sg15
F7.4387542087542107
sg16
F7.427940516273849
sg17
F7.4356228956228945
sg18
F7.4186531986532014
sg19
F0.00015223527327935224
sa(dp50
g3
F10.494
sg4
F0.00038659799999999999
sg5
F139.69200000000001
sg6
F4.2071799999999999e-05
sg7
F5.4609299999999999e-05
sg8
F-22.59
sg9
F0.00040930894736842112
sg10
F-31.032
sg11
F0.0018173499999999999
sg12
F0.0013998034412955466
sg13
F0.00082230307692307699
sg14
F7.5376372663551443
sg15
F7.5410864485981319
sg16
F7.5310426401869153
sg17
F7.5328621495327086
sg18
F7.5228183411214982
sg19
F0.00015222511133603238
sa(dp51
g3
F10.596
sg4
F0.00038635900000000002
sg5
F139.89599999999999
sg6
F4.2233800000000002e-05
sg7
F5.4609299999999999e-05
sg8
F-22.59
sg9
F0.00040931391700404861
sg10
F-31.038
sg11
F0.001817
sg12
F0.0013998251012145749
sg13
F0.00082230545546558708
sg14
F7.6363726635514029
sg15
F7.6369042056074772
sg16
F7.6297021028037424
sg17
F7.6320911214953249
sg18
F7.6224620327102786
sg19
F0.00015223224696356275
sa(dp52
g3
F10.746
sg4
F0.000385972
sg5
F140.142
sg6
F4.24369e-05
sg7
F5.4521699999999997e-05
sg8
F-22.565999999999999
sg9
F0.00040930808704453444
sg10
F-31.044
sg11
F0.00181664
sg12
F0.0013997602226720649
sg13
F0.00082231670040485837
sg14
F7.7247605140186923
sg15
F7.7335922897196276
sg16
F7.7185835280373825
sg17
F7.7232067757009357
sg18
F7.708311915887851
sg19
F0.00015223894736842106
sa(dp53
g3
F10.859999999999999
sg4
F0.00038573299999999997
sg5
F140.34
sg6
F4.2606399999999999e-05
sg7
F5.4324299999999998e-05
sg8
F-22.584
sg9
F0.00040930527327935222
sg10
F-31.038
sg11
F0.0018163999999999999
sg12
F0.0013997990890688261
sg13
F0.00082231129554655874
sg14
F7.832973130841121
sg15
F7.8386185747663566
sg16
F7.8193282710280396
sg17
F7.8261127336448615
sg18
F7.8126197429906572
sg19
F0.00015223462550607289
sa(dp54
g3
F10.98
sg4
F0.000385435
sg5
F140.53800000000001
sg6
F4.2775899999999998e-05
sg7
F5.4070999999999998e-05
sg8
F-22.577999999999999
sg9
F0.00040930873481781379
sg10
F-31.038
sg11
F0.0018160400000000001
sg12
F0.0013997147773279353
sg13
F0.0008222907591093118
sg14
F7.9531220794392548
sg15
F7.9566092289719652
sg16
F7.9332242990654196
sg17
F7.9422050233644894
sg18
F7.9204877336448609
sg19
F0.00015223181174089069
sa(dp55
g3
F11.058
sg4
F0.00038528599999999998
sg5
F140.65199999999999
sg6
F4.2893199999999998e-05
sg7
F5.3925699999999998e-05
sg8
F-22.577999999999999
sg9
F0.00040930808704453444
sg10
F-31.044
sg11
F0.0018159199999999999
sg12
F0.0013997429149797569
sg13
F0.00082231691295546569
sg14
F8.0234972341733286
sg15
F8.0315150583896777
sg16
F8.019191763982791
sg17
F8.0201075599262488
sg18
F8.0125291948371231
sg19
F0.00015223742914979757
sa(dp56
g3
F11.166
sg4
F0.00038504799999999998
sg5
F140.82599999999999
sg6
F4.3044099999999997e-05
sg7
F5.3730100000000002e-05
sg8
F-22.577999999999999
sg9
F0.00040931413967611332
sg10
F-31.032
sg11
F0.0018156800000000001
sg12
F0.0013997558704453442
sg13
F0.00082230653846153846
sg14
F8.1232022126613384
sg15
F8.1356054087277201
sg16
F8.1172218807621395
sg17
F8.1198524892440069
sg18
F8.1171819299323946
sg19
F0.00015223008097165993
sa(dp57
g3
F11.262
sg4
F0.00038486899999999998
sg5
F140.94
sg6
F4.3150299999999999e-05
sg7
F5.3569899999999997e-05
sg8
F-22.571999999999999
sg9
F0.0004092968421052632
sg10
F-31.038
sg11
F0.0018155599999999999
sg12
F0.0013996758097165993
sg13
F0.00082228795546558707
sg14
F8.2501874615857407
sg15
F8.2522618315918912
sg16
F8.2395789797172725
sg17
F8.2421727105101432
sg18
F8.2264597418561749
sg19
F0.00015223613360323886
sa(dp58
g3
F11.298
sg4
F0.00038475
sg5
F141.018
sg6
F4.3209900000000001e-05
sg7
F5.3484199999999999e-05
sg8
F-22.571999999999999
sg9
F0.0004093206174089069
sg10
F-31.032
sg11
F0.0018154499999999999
sg12
F0.001399662854251012
sg13
F0.00082229184210526318
sg14
F8.3488567916410616
sg15
F8.3667240319606666
sg16
F8.328635525507071
sg17
F8.3431130915795961
sg18
F8.3222556853103899
sg19
F0.00015224283400809717
sa(dp59
g3
F11.304
sg4
F0.00038468999999999998
sg5
F141.054
sg6
F4.3245299999999997e-05
sg7
F5.3435800000000001e-05
sg8
F-22.584
sg9
F0.00040930181174089069
sg10
F-31.044
sg11
F0.00181533
sg12
F0.0013997298582995952
sg13
F0.00082228514170040496
sg14
F8.4521911493546416
sg15
F8.4590903503380428
sg16
F8.4362784265519348
sg17
F8.4453318992009851
sg18
F8.4268254456054077
sg19
F0.00015222878542510123
sa(dp60
g3
F11.31
sg4
F0.00038463100000000002
sg5
F141.12
sg6
F4.3258299999999999e-05
sg7
F5.3376199999999999e-05
sg8
F-22.584
sg9
F0.00040929403846153847
sg10
F-31.044
sg11
F0.00181521
sg12
F0.0013996196356275304
sg13
F0.00082225228744939283
sg14
F8.5306428571428548
sg15
F8.5406298701298731
sg16
F8.5139999999999993
sg17
F8.5220064935064954
sg18
F8.5127370129870172
sg19
F0.00015221625506072877
sa(dp61
g3
F11.273999999999999
sg4
F0.00038465999999999999
sg5
F141.096
sg6
F4.3245299999999997e-05
sg7
F5.3391099999999998e-05
sg8
F-22.596
sg9
F0.00040925988866396764
sg10
F-31.044
sg11
F0.00181521
sg12
F0.0013996088056680161
sg13
F0.00082221252024291505
sg14
F8.6372889610389585
sg15
F8.6450422077922049
sg16
F8.6282727272727247
sg17
F8.6376266233766241
sg18
F8.6192954545454512
sg19
F0.00015221258097165993
sa(dp62
g3
F11.34
sg4
F0.00038460099999999999
sg5
F141.15000000000001
sg6
F4.33328e-05
sg7
F5.33334e-05
sg8
F-22.596
sg9
F0.00040927544534412954
sg10
F-31.050000000000001
sg11
F0.00181533
sg12
F0.001399559008097166
sg13
F0.0008222181376518219
sg14
F8.7384123376623339
sg15
F8.7484837662337682
sg16
F8.7216850649350643
sg17
F8.7327240259740257
sg18
F8.7135097402597381
sg19
F0.00015220327935222674
sa(dp63
g3
F11.388
sg4
F0.000384571
sg5
F141.17400000000001
sg6
F4.3373800000000001e-05
sg7
F5.3309100000000001e-05
sg8
F-22.577999999999999
sg9
F0.00040927306680161945
sg10
F-31.044
sg11
F0.00181533
sg12
F0.0013995504048582997
sg13
F0.00082223153846153847
sg14
F8.8404220779220779
sg15
F8.8454383116883069
sg16
F8.8316590909090866
sg17
F8.8344805194805183
sg18
F8.8263928571428565
sg19
F0.0001522153846153846
sa(dp64
g3
F11.448
sg4
F0.00038448200000000001
sg5
F141.24000000000001
sg6
F4.3446399999999998e-05
sg7
F5.3216e-05
sg8
F-22.571999999999999
sg9
F0.00040927825910931176
sg10
F-31.032
sg11
F0.00181521
sg12
F0.0013995654858299596
sg13
F0.00082224623481781385
sg14
F8.9396948051948044
sg15
F8.947321428571426
sg16
F8.9328668831168834
sg17
F8.9335422077922058
sg18
F8.9223766233766195
sg19
F0.00015221193319838057
sa(dp65
g3
F11.465999999999999
sg4
F0.000384392
sg5
F141.29400000000001
sg6
F4.3511599999999999e-05
sg7
F5.3139600000000002e-05
sg8
F-22.577999999999999
sg9
F0.00040927847165991903
sg10
F-31.062000000000001
sg11
F0.0018150900000000001
sg12
F0.0013995243927125507
sg13
F0.00082222548582995948
sg14
F9.0391174450549396
sg15
F9.0526201923076943
sg16
F9.0263289835164837
sg17
F9.0327438186813129
sg18
F9.0207108516483512
sg19
F0.00015222273279352227
sa(dp66
g3
F11.52
sg4
F0.00038430300000000001
sg5
F141.34800000000001
sg6
F4.3558199999999999e-05
sg7
F5.3076299999999999e-05
sg8
F-22.565999999999999
sg9
F0.00040926918016194328
sg10
F-31.044
sg11
F0.0018150900000000001
sg12
F0.001399453036437247
sg13
F0.00082219479757085023
sg14
F9.1494642857142843
sg15
F9.1499107142857135
sg16
F9.1315041208791179
sg17
F9.1427335164835117
sg18
F9.1246840659340691
sg19
F0.00015220825910931176
sa(dp67
g3
F11.532
sg4
F0.00038427300000000003
sg5
F141.36600000000001
sg6
F4.3582399999999998e-05
sg7
F5.30614e-05
sg8
F-22.584
sg9
F0.0004092661538461539
sg10
F-31.038
sg11
F0.0018150900000000001
sg12
F0.0013994617408906885
sg13
F0.00082220625506072874
sg14
F9.2414045329670316
sg15
F9.2464388736263761
sg16
F9.2217067307692275
sg17
F9.2250927197802177
sg18
F9.222953296703297
sg19
F0.00015220047570850201
sa(dp68
g3
F11.592000000000001
sg4
F0.00038418399999999998
sg5
F141.43799999999999
sg6
F4.3645700000000001e-05
sg7
F5.2973899999999998e-05
sg8
F-22.577999999999999
sg9
F0.00040926550607287449
sg10
F-31.044
sg11
F0.00181485
sg12
F0.0013994271255060729
sg13
F0.0008221893927125506
sg14
F9.3422561813186835
sg15
F9.3459134615384638
sg16
F9.3219368131868166
sg17
F9.3360199175824157
sg18
F9.3165865384615358
sg19
F0.0001522091194331984
sa(dp69
g3
F11.640000000000001
sg4
F0.00038409400000000003
sg5
F141.50399999999999
sg6
F4.3712799999999999e-05
sg7
F5.28882e-05
sg8
F-22.577999999999999
sg9
F0.0004092680971659919
sg10
F-31.044
sg11
F0.00181485
sg12
F0.0013994336032388665
sg13
F0.00082218269230769237
sg14
F9.4418200549450546
sg15
F9.4492616758241752
sg16
F9.4270673076923099
sg17
F9.43464285714286
sg18
F9.4220741758241768
sg19
F0.00015219744939271257
sa(dp70
g3
F11.634
sg4
F0.00038406399999999999
sg5
F141.52199999999999
sg6
F4.3727699999999998e-05
sg7
F5.2871399999999997e-05
sg8
F-22.577999999999999
sg9
F0.00040927133603238871
sg10
F-31.044
sg11
F0.00181485
sg12
F0.0013993989878542511
sg13
F0.00082217901821862347
sg14
F9.5320428156748918
sg15
F9.5437227866473187
sg16
F9.5255914368650263
sg17
F9.522391146589257
sg18
F9.5218251088534078
sg19
F0.00015219918016194333
sa(dp71
g3
F11.694000000000001
sg4
F0.00038400499999999998
sg5
F141.58199999999999
sg6
F4.37966e-05
sg7
F5.2794999999999999e-05
sg8
F-22.565999999999999
sg9
F0.00040926550607287449
sg10
F-31.050000000000001
sg11
F0.00181485
sg12
F0.0013993578947368421
sg13
F0.00082216474696356285
sg14
F9.636487663280116
sg15
F9.6437373004354168
sg16
F9.6268795355587784
sg17
F9.6330007256894081
sg18
F9.620239477503624
sg19
F0.00015220327935222674
sa(dp72
g3
F11.67
sg4
F0.000383975
sg5
F141.59399999999999
sg6
F4.3800300000000001e-05
sg7
F5.2785699999999998e-05
sg8
F-22.577999999999999
sg9
F0.00040925793522267204
sg10
F-31.044
sg11
F0.00181485
sg12
F0.0013992843117408907
sg13
F0.00082214767206477738
sg14
F9.7228955007256879
sg15
F9.7295827285921579
sg16
F9.726897677793902
sg17
F9.7264731494920174
sg18
F9.7204462989840366
sg19
F0.00015219680161943319
sa(dp73
g3
F11.76
sg4
F0.00038385600000000002
sg5
F141.69
sg6
F4.3908400000000001e-05
sg7
F5.2657200000000001e-05
sg8
F-22.577999999999999
sg9
F0.00040923589068825913
sg10
F-31.044
sg11
F0.0018147300000000001
sg12
F0.0013992930161943319
sg13
F0.00082212973684210524
sg14
F9.8511647314949222
sg15
F9.8553084179970938
sg16
F9.8364259796806977
sg17
F9.845185050798257
sg18
F9.8221589259796822
sg19
F0.00015219723684210527
sa(dp74
g3
F11.754
sg4
F0.00038385600000000002
sg5
F141.696
sg6
F4.3927000000000001e-05
sg7
F5.2655299999999997e-05
sg8
F-22.577999999999999
sg9
F0.00040923135627530366
sg10
F-31.044
sg11
F0.0018146099999999999
sg12
F0.0013991956477732795
sg13
F0.00082210769230769238
sg14
F9.9501923076923031
sg15
F9.9520754716981141
sg16
F9.9408236574745974
sg17
F9.9459542815674844
sg18
F9.9304136429608061
sg19
F0.0001521888056680162
sa(dp75
g3
F11.82
sg4
F0.00038373699999999999
sg5
F141.762
sg6
F4.3980999999999998e-05
sg7
F5.2562200000000003e-05
sg8
F-22.577999999999999
sg9
F0.00040922789473684209
sg10
F-31.044
sg11
F0.00181449
sg12
F0.0013991394736842105
sg13
F0.0008221092004048583
sg14
F10.052201834862384
sg15
F10.060038226299694
sg16
F10.04034403669724
sg17
F10.047737003058101
sg18
F10.029629204892959
sg19
F0.00015219183198380567
sa(dp76
g3
F11.837999999999999
sg4
F0.00038367700000000002
sg5
F141.786
sg6
F4.4033199999999997e-05
sg7
F5.2515700000000003e-05
sg8
F-22.584
sg9
F0.00040924000000000001
sg10
F-31.044
sg11
F0.00181449
sg12
F0.001399210829959514
sg13
F0.00082210487854251016
sg14
F10.149384556574923
sg15
F10.150825688073395
sg16
F10.132668195718654
sg17
F10.142339449541279
sg18
F10.12621941896024
sg19
F0.00015218987854251012
sa(dp77
g3
F11.862
sg4
F0.00038364699999999998
sg5
F141.816
sg6
F4.4061099999999997e-05
sg7
F5.2497000000000002e-05
sg8
F-22.59
sg9
F0.00040923415991902834
sg10
F-31.050000000000001
sg11
F0.00181437
sg12
F0.0013991048582995952
sg13
F0.00082210444331983813
sg14
F10.242599388379205
sg15
F10.251185015290515
sg16
F10.229701834862382
sg17
F10.234514525993882
sg18
F10.227022171253818
sg19
F0.00015219312753036437
sa(dp78
g3
F11.916
sg4
F0.000383617
sg5
F141.858
sg6
F4.4094600000000003e-05
sg7
F5.2467199999999998e-05
sg8
F-22.565999999999999
sg9
F0.00040923913967611333
sg10
F-31.056000000000001
sg11
F0.00181449
sg12
F0.0013990810728744939
sg13
F0.00082208780364372469
sg14
F10.329365443425072
sg15
F10.334525993883787
sg16
F10.32445718654434
sg17
F10.327779051987761
sg18
F10.319892966360854
sg19
F0.0001521888056680162
sa(dp79
g3
F11.981999999999999
sg4
F0.00038346799999999998
sg5
F141.94200000000001
sg6
F4.42045e-05
sg7
F5.2336799999999997e-05
sg8
F-22.577999999999999
sg9
F0.00040922897773279352
sg10
F-31.062000000000001
sg11
F0.0018142500000000001
sg12
F0.0013990291497975708
sg13
F0.00082207721659919035
sg14
F10.433100152905199
sg15
F10.441930428134553
sg16
F10.424170489296635
sg17
F10.43032110091743
sg18
F10.418214831804274
sg19
F0.00015218210526315789
sa(dp80
g3
F12.054
sg4
F0.00038331900000000002
sg5
F142.03800000000001
sg6
F4.4292100000000002e-05
sg7
F5.2219499999999997e-05
sg8
F-22.571999999999999
sg9
F0.00040923697368421051
sg10
F-31.056000000000001
sg11
F0.0018142500000000001
sg12
F0.001398998886639676
sg13
F0.0008220679251012146
sg14
F10.54411646586345
sg15
F10.553602409638552
sg16
F10.526602409638553
sg17
F10.53755020080321
sg18
F10.516546184738949
sg19
F0.0001521846963562753
sa(dp81
g3
F12.077999999999999
sg4
F0.00038329
sg5
F142.05600000000001
sg6
F4.4338600000000003e-05
sg7
F5.2193400000000001e-05
sg8
F-22.565999999999999
sg9
F0.00040923524291497978
sg10
F-31.044
sg11
F0.00181413
sg12
F0.0013989663967611335
sg13
F0.00082207894736842108
sg14
F10.640016064257026
sg15
F10.643036144578309
sg16
F10.629903614457827
sg17
F10.635116465863453
sg18
F10.625004016064254
sg19
F0.00015218317813765184
sa(dp82
g3
F12.138
sg4
F0.00038317000000000001
sg5
F142.13399999999999
sg6
F4.4400100000000002e-05
sg7
F5.2094700000000001e-05
sg8
F-22.565999999999999
sg9
F0.00040923308704453445
sg10
F-31.038
sg11
F0.00181402
sg12
F0.0013989036437246963
sg13
F0.00082205581983805663
sg14
F10.736746987951809
sg15
F10.745658634538151
sg16
F10.731329317269072
sg17
F10.735393574297186
sg18
F10.720955823293176
sg19
F0.00015218858299595141
sa(dp83
g3
F12.173999999999999
sg4
F0.00038314099999999998
sg5
F142.18799999999999
sg6
F4.4446700000000003e-05
sg7
F5.2051900000000002e-05
sg8
F-22.571999999999999
sg9
F0.00040922919028340085
sg10
F-31.038
sg11
F0.00181402
sg12
F0.0013988820850202427
sg13
F0.00082206122469635637
sg14
F10.83917269076305
sg15
F10.84350200803213
sg16
F10.834016064257028
sg17
F10.835839357429723
sg18
F10.826927710843373
sg19
F0.00015217950404858299
sa(dp84
g3
F12.204000000000001
sg4
F0.00038305099999999998
sg5
F142.20599999999999
sg6
F4.4506299999999998e-05
sg7
F5.19829e-05
sg8
F-22.565999999999999
sg9
F0.00040922962550607288
sg10
F-31.056000000000001
sg11
F0.0018137800000000001
sg12
F0.0013988063765182188
sg13
F0.00082201864372469637
sg14
F10.927309236947796
sg15
F10.941016064257028
sg16
F10.926056224899602
sg17
F10.924337349397589
sg18
F10.919594377510043
sg19
F0.00015218858299595141
sa(dp85
g3
F12.257999999999999
sg4
F0.000382932
sg5
F142.28999999999999
sg6
F4.4582600000000002e-05
sg7
F5.1895399999999998e-05
sg8
F-22.565999999999999
sg9
F0.000409211032388664
sg10
F-31.044
sg11
F0.0018136599999999999
sg12
F0.0013987263157894739
sg13
F0.00082199226720647777
sg14
F11.029128787878786
sg15
F11.03753787878788
sg16
F11.017112794612796
sg17
F11.020387205387213
sg18
F11.015471380471386
sg19
F0.00015217972672064778
sa(dp86
g3
F12.311999999999999
sg4
F0.00038284199999999999
sg5
F142.33799999999999
sg6
F4.4645999999999999e-05
sg7
F5.1815299999999998e-05
sg8
F-22.565999999999999
sg9
F0.00040920628542510121
sg10
F-31.062000000000001
sg11
F0.0018136599999999999
sg12
F0.001398750101214575
sg13
F0.00082198967611336036
sg14
F11.144486531986532
sg15
F11.146889730639732
sg16
F11.134760101010103
sg17
F11.136456228956231
sg18
F11.124111952861954
sg19
F0.00015217885627530364
sa(dp87
g3
F12.366
sg4
F0.00038278299999999998
sg5
F142.392
sg6
F4.4700000000000002e-05
sg7
F5.1753799999999999e-05
sg8
F-22.565999999999999
sg9
F0.00040921169028340084
sg10
F-31.056000000000001
sg11
F0.0018136599999999999
sg12
F0.0013986246963562754
sg13
F0.0008219840587044534
sg14
F11.243674242424241
sg15
F11.249629629629629
sg16
F11.225159932659933
sg17
F11.238211279461284
sg18
F11.218602693602698
sg19
F0.00015217691295546558
sa(dp88
g3
F12.384
sg4
F0.000382753
sg5
F142.446
sg6
F4.47391e-05
sg7
F5.1724000000000001e-05
sg8
F-22.565999999999999
sg9
F0.00040921298582995949
sg10
F-31.050000000000001
sg11
F0.0018136599999999999
sg12
F0.0013986549595141702
sg13
F0.0008219963765182187
sg14
F11.338985690235695
sg15
F11.350782828282824
sg16
F11.325058922558926
sg17
F11.328333333333333
sg18
F11.319705387205387
sg19
F0.00015218123481781378
sa(dp89
g3
F12.407999999999999
sg4
F0.00038272300000000002
sg5
F142.446
sg6
F4.4761500000000002e-05
sg7
F5.1696100000000001e-05
sg8
F-22.559999999999999
sg9
F0.00040920368421052636
sg10
F-31.050000000000001
sg11
F0.00181354
sg12
F0.0013985252024291499
sg13
F0.00082197497975708498
sg14
F11.43539141414141
sg15
F11.446203703703704
sg16
F11.419440235690235
sg17
F11.423211279461276
sg18
F11.422664141414145
sg19
F0.00015217540485829961
sa(dp90
g3
F12.468
sg4
F0.00038260399999999998
sg5
F142.5
sg6
F4.4832200000000001e-05
sg7
F5.1603e-05
sg8
F-22.559999999999999
sg9
F0.00040920174089068825
sg10
F-31.056000000000001
sg11
F0.00181354
sg12
F0.0013984818825910933
sg13
F0.00082193909919028342
sg14
F11.540269196822589
sg15
F11.55040600176522
sg16
F11.53064430714916
sg17
F11.534483671668134
sg18
F11.52154015887025
sg19
F0.0001521741093117409
sa(dp91
g3
F12.497999999999999
sg4
F0.00038254400000000002
sg5
F142.548
sg6
F4.4888100000000001e-05
sg7
F5.1563800000000003e-05
sg8
F-22.565999999999999
sg9
F0.00040920952429149797
sg10
F-31.050000000000001
sg11
F0.00181354
sg12
F0.0013984364372469635
sg13
F0.00082195401821862351
sg14
F11.637802294792584
sg15
F11.645361871138572
sg16
F11.627833186231243
sg17
F11.633274492497794
sg18
F11.620216240070608
sg19
F0.00015215983805668017
sa(dp92
g3
F12.545999999999999
sg4
F0.00038248500000000001
sg5
F142.602
sg6
F4.4956999999999997e-05
sg7
F5.1491199999999999e-05
sg8
F-22.547999999999998
sg9
F0.00040921038461538465
sg10
F-31.056000000000001
sg11
F0.00181342
sg12
F0.0013983975708502026
sg13
F0.00082193110323886638
sg14
F11.738309796999111
sg15
F11.743693733451007
sg16
F11.73195498676081
sg17
F11.736076787290374
sg18
F11.72479699911738
sg19
F0.00015217194331983806
sa(dp93
g3
F12.6
sg4
F0.00038236599999999998
sg5
F142.67400000000001
sg6
F4.5014800000000001e-05
sg7
F5.14111e-05
sg8
F-22.559999999999999
sg9
F0.00040920023279352228
sg10
F-31.044
sg11
F0.0018132999999999999
sg12
F0.0013982505060728745
sg13
F0.00082193304655870443
sg14
F11.830463371579869
sg15
F11.835158870255958
sg16
F11.824046778464254
sg17
F11.830688437775814
sg18
F11.819007060900262
sg19
F0.00015216740890688259
sa(dp94
g3
F12.648
sg4
F0.00038230600000000001
sg5
F142.72200000000001
sg6
F4.5083699999999997e-05
sg7
F5.1355199999999999e-05
sg8
F-22.559999999999999
sg9
F0.00040920735829959515
sg10
F-31.050000000000001
sg11
F0.00181318
sg12
F0.001398244028340081
sg13
F0.00082192245951417009
sg14
F11.934466019417469
sg15
F11.939792586054718
sg16
F11.92587378640776
sg17
F11.930229479258603
sg18
F11.922383053839358
sg19
F0.0001521687044534413
sa(dp95
g3
F12.714
sg4
F0.00038221700000000002
sg5
F142.77000000000001
sg6
F4.5148899999999997e-05
sg7
F5.1258399999999997e-05
sg8
F-22.547999999999998
sg9
F0.00040921060728744946
sg10
F-31.038
sg11
F0.00181318
sg12
F0.0013981206477732793
sg13
F0.00082189674089068823
sg14
F12.04228531855955
sg15
F12.050253924284387
sg16
F12.027783933518
sg17
F12.033056325023082
sg18
F12.022871652816248
sg19
F0.00015217043522267206
sa(dp96
g3
F12.75
sg4
F0.00038215699999999999
sg5
F142.83600000000001
sg6
F4.5204799999999998e-05
sg7
F5.1202500000000003e-05
sg8
F-22.553999999999998
sg9
F0.0004092049898785425
sg10
F-31.044
sg11
F0.00181318
sg12
F0.0013981163967611337
sg13
F0.00082190214574898797
sg14
F12.136412742382266
sg15
F12.13796860572484
sg16
F12.127003693444133
sg17
F12.1353324099723
sg18
F12.117179132040629
sg19
F0.0001521741093117409
sa(dp97
g3
F12.798
sg4
F0.00038203800000000002
sg5
F142.88399999999999
sg6
F4.5268100000000001e-05
sg7
F5.1122399999999997e-05
sg8
F-22.553999999999998
sg9
F0.00040920411943319839
sg10
F-31.062000000000001
sg11
F0.0018129400000000001
sg12
F0.0013980601214574897
sg13
F0.00082187685222672076
sg14
F12.231615881809788
sg15
F12.237608494921517
sg16
F12.22263157894737
sg17
F12.228619575253926
sg18
F12.215318559556783
sg19
F0.0001521702125506073
sa(dp98
g3
F12.81
sg4
F0.00038200799999999998
sg5
F142.90799999999999
sg6
F4.5297899999999999e-05
sg7
F5.1081400000000002e-05
sg8
F-22.559999999999999
sg9
F0.00040919330971659923
sg10
F-31.056000000000001
sg11
F0.0018129400000000001
sg12
F0.0013979260121457489
sg13
F0.00082184140688259112
sg14
F12.345096952908591
sg15
F12.349889196675903
sg16
F12.334192059095109
sg17
F12.335452446906741
sg18
F12.324367497691593
sg19
F0.00015215703441295546
sa(dp99
g3
F12.869999999999999
sg4
F0.00038191899999999999
sg5
F142.96799999999999
sg6
F4.5363099999999999e-05
sg7
F5.1016200000000001e-05
sg8
F-22.542000000000002
sg9
F0.00040916370445344131
sg10
F-31.044
sg11
F0.0018129400000000001
sg12
F0.0013978438259109312
sg13
F0.00082183081983805667
sg14
F12.436168051708222
sg15
F12.444976915974147
sg16
F12.427659279778391
sg17
F12.428499538319478
sg18
F12.421726685133885
sg19
F0.00015211769230769233
sa(dp100
g3
F12.923999999999999
sg4
F0.00038179899999999999
sg5
F143.04599999999999
sg6
F4.5441300000000001e-05
sg7
F5.0930500000000003e-05
sg8
F-22.553999999999998
sg9
F0.00040916283400809715
sg10
F-31.056000000000001
sg11
F0.0018127
sg12
F0.0013977832995951418
sg13
F0.00082180055668016195
sg14
F12.546811594202898
sg15
F12.54593236714976
sg16
F12.531198067632852
sg17
F12.541666666666666
sg18
F12.517028985507245
sg19
F0.00015210515182186235
sa(dp101
g3
F12.965999999999999
sg4
F0.00038177000000000003
sg5
F143.07599999999999
sg6
F4.5480399999999999e-05
sg7
F5.0891399999999999e-05
sg8
F-22.547999999999998
sg9
F0.0004091528947368421
sg10
F-31.044
sg11
F0.0018127
sg12
F0.0013976491902834007
sg13
F0.00082177072874493927
sg14
F12.641227053140096
sg15
F12.642420289855071
sg16
F12.628811594202901
sg17
F12.639473429951686
sg18
F12.620661835748788
sg19
F0.00015211380566801619
sa(dp102
g3
F13.007999999999999
sg4
F0.00038162100000000001
sg5
F143.11199999999999
sg6
F4.5521400000000001e-05
sg7
F5.0801999999999999e-05
sg8
F-22.547999999999998
sg9
F0.00040914943319838058
sg10
F-31.050000000000001
sg11
F0.0018125800000000001
sg12
F0.0013975951417004048
sg13
F0.00082175646761133614
sg14
F12.737149758454107
sg15
F12.740787439613527
sg16
F12.719405797101452
sg17
F12.729251207729471
sg18
F12.714265700483086
sg19
F0.00015211185222672067
sa(dp103
g3
F13.050000000000001
sg4
F0.00038162100000000001
sg5
F143.184
sg6
F4.5588499999999999e-05
sg7
F5.0755499999999999e-05
sg8
F-22.542000000000002
sg9
F0.00040915375506072872
sg10
F-31.044
sg11
F0.0018125800000000001
sg12
F0.0013975172064777327
sg13
F0.00082175883603238873
sg14
F12.836956521739125
sg15
F12.841473429951684
sg16
F12.831690821256037
sg17
F12.835579710144923
sg18
F12.828681159420292
sg19
F0.00015210688259109312
sa(dp104
g3
F13.098000000000001
sg4
F0.000381531
sg5
F143.238
sg6
F4.5642500000000002e-05
sg7
F5.0695799999999997e-05
sg8
F-22.553999999999998
sg9
F0.00040915138663967613
sg10
F-31.044
sg11
F0.0018124700000000001
sg12
F0.0013973830971659919
sg13
F0.00082172576923076929
sg14
F12.927425120772945
sg15
F12.933067632850241
sg16
F12.915014492753615
sg17
F12.924415458937197
sg18
F12.912753623188408
sg19
F0.00015210082995951416
sa(dp105
g3
F13.157999999999999
sg4
F0.000381472
sg5
F143.274
sg6
F4.57095e-05
sg7
F5.06232e-05
sg8
F-22.536000000000001
sg9
F0.00040915008097165993
sg10
F-31.050000000000001
sg11
F0.0018124700000000001
sg12
F0.0013973853238866396
sg13
F0.00082170653846153855
sg14
F13.036760847628656
sg15
F13.039772956609484
sg16
F13.032502522704339
sg17
F13.036236125126131
sg18
F13.026281533804235
sg19
F0.00015210018218623483
sa(dp106
g3
F13.188000000000001
sg4
F0.000381352
sg5
F143.328
sg6
F4.5759800000000002e-05
sg7
F5.0557999999999999e-05
sg8
F-22.547999999999998
sg9
F0.00040914187246963562
sg10
F-31.044
sg11
F0.0018123499999999999
sg12
F0.0013972749999999999
sg13
F0.00082170653846153855
sg14
F13.129999999999992
sg15
F13.140605449041374
sg16
F13.119263370332995
sg17
F13.122209889001002
sg18
F13.120110998990917
sg19
F0.00015211207489878543
sa(dp107
g3
F13.23
sg4
F0.000381293
sg5
F143.376
sg6
F4.58176e-05
sg7
F5.0504000000000003e-05
sg8
F-22.542000000000002
sg9
F0.00040913063765182187
sg10
F-31.050000000000001
sg11
F0.00181223
sg12
F0.0013971625506072876
sg13
F0.0008216622267206477
sg14
F13.233587285570133
sg15
F13.237512613521691
sg16
F13.225529767911203
sg17
F13.228087790110994
sg18
F13.224878910191729
sg19
F0.00015209910931174089
sa(dp108
g3
F13.247999999999999
sg4
F0.00038126300000000001
sg5
F143.376
sg6
F4.5832499999999999e-05
sg7
F5.0470499999999997e-05
sg8
F-22.542000000000002
sg9
F0.0004091340890688259
sg10
F-31.062000000000001
sg11
F0.00181223
sg12
F0.001397119230769231
sg13
F0.00082164363360323893
sg14
F13.335272452068615
sg15
F13.341493440968717
sg16
F13.333965691220985
sg17
F13.328329969727546
sg18
F13.326629667003031
sg19
F0.00015212590080971661
sa(dp109
g3
F13.332000000000001
sg4
F0.000381114
sg5
F143.49000000000001
sg6
F4.59349e-05
sg7
F5.0338199999999999e-05
sg8
F-22.536000000000001
sg9
F0.00040913884615384618
sg10
F-31.050000000000001
sg11
F0.00181211
sg12
F0.0013970587044534414
sg13
F0.00082163131578947375
sg14
F13.435650857719478
sg15
F13.439838546922307
sg16
F13.427270433905152
sg17
F13.43132694248234
sg18
F13.419212916246222
sg19
F0.00015212007085020244
sa(dp110
g3
F13.41
sg4
F0.00038099500000000002
sg5
F143.57400000000001
sg6
F4.6028100000000001e-05
sg7
F5.0254399999999998e-05
sg8
F-22.542000000000002
sg9
F0.0004091379858299595
sg10
F-31.044
sg11
F0.0018119900000000001
sg12
F0.0013969181174089071
sg13
F0.00082162137651821854
sg14
F13.531540483701372
sg15
F13.547776025236598
sg16
F13.522055730809674
sg17
F13.522397476340696
sg18
F13.519800210304945
sg19
F0.00015211337044534413
sa(dp111
g3
F13.452
sg4
F0.000380935
sg5
F143.60400000000001
sg6
F4.60802e-05
sg7
F5.0194800000000003e-05
sg8
F-22.524000000000001
sg9
F0.00040913690283400812
sg10
F-31.050000000000001
sg11
F0.0018118699999999999
sg12
F0.0013967927125506075
sg13
F0.00082161164979757087
sg14
F13.648417455310195
sg15
F13.656950578338595
sg16
F13.631361724500522
sg17
F13.636682439537326
sg18
F13.62487907465826
sg19
F0.00015211401821862348
sa(dp112
g3
F13.481999999999999
sg4
F0.00038087599999999999
sg5
F143.65199999999999
sg6
F4.6104399999999999e-05
sg7
F5.0150099999999999e-05
sg8
F-22.530000000000001
sg9
F0.00040912544534412956
sg10
F-31.044
sg11
F0.0018118699999999999
sg12
F0.0013967493927125507
sg13
F0.00082158420040485828
sg14
F13.743191377497364
sg15
F13.751656151419557
sg16
F13.734936908517346
sg17
F13.737665615141957
sg18
F13.724637223974758
sg19
F0.00015210105263157894
sa(dp113
g3
F13.529999999999999
sg4
F0.00038081600000000002
sg5
F143.68199999999999
sg6
F4.6164e-05
sg7
F5.0099799999999998e-05
sg8
F-22.530000000000001
sg9
F0.00040912523279352229
sg10
F-31.056000000000001
sg11
F0.00181175
sg12
F0.0013965439271255062
sg13
F0.00082154335020242922
sg14
F13.824800210304941
sg15
F13.829984227129339
sg16
F13.826161934805468
sg17
F13.824731861198732
sg18
F13.82336487907466
sg19
F0.00015208765182186235
sa(dp114
g3
F13.59
sg4
F0.00038072699999999998
sg5
F143.75999999999999
sg6
F4.62348e-05
sg7
F5.0025299999999997e-05
sg8
F-22.512
sg9
F0.00040912803643724702
sg10
F-31.032
sg11
F0.00181175
sg12
F0.0013964358299595142
sg13
F0.00082152930161943319
sg14
F13.947549947423763
sg15
F13.948774973711885
sg16
F13.930557308096741
sg17
F13.941477392218719
sg18
F13.922917981072555
sg19
F0.00015209867408906883
sa(dp115
g3
F13.614000000000001
sg4
F0.00038066700000000001
sg5
F143.77799999999999
sg6
F4.6270200000000003e-05
sg7
F4.9982499999999998e-05
sg8
F-22.518000000000001
sg9
F0.00040911096153846156
sg10
F-31.044
sg11
F0.0018116300000000001
sg12
F0.0013963709514170043
sg13
F0.00082151676113360319
sg14
F14.043302300109531
sg15
F14.047990142387723
sg16
F14.031927710843375
sg17
F14.038537787513684
sg18
F14.022053669222343
sg19
F0.0001521032085020243
sa(dp116
g3
F13.65
sg4
F0.00038060699999999998
sg5
F143.81399999999999
sg6
F4.6314899999999999e-05
sg7
F4.9939599999999999e-05
sg8
F-22.530000000000001
sg9
F0.0004091189574898786
sg10
F-31.050000000000001
sg11
F0.00181175
sg12
F0.0013962173076923078
sg13
F0.00082147591093117403
sg14
F14.128302300109524
sg15
F14.135481927710847
sg16
F14.118992332968231
sg17
F14.120629791894855
sg18
F14.118066812705369
sg19
F0.00015209521255060728
sa(dp117
g3
F13.686
sg4
F0.00038054799999999998
sg5
F143.84999999999999
sg6
F4.6357699999999998e-05
sg7
F4.9891200000000001e-05
sg8
F-22.518000000000001
sg9
F0.00040910361336032392
sg10
F-31.038
sg11
F0.0018115099999999999
sg12
F0.0013961156882591093
sg13
F0.00082144716599190295
sg14
F14.225032858707559
sg15
F14.232491785323115
sg16
F14.218636363636364
sg17
F14.226878422782034
sg18
F14.219348302300112
sg19
F0.00015209024291497976
sa(dp118
g3
F13.74
sg4
F0.00038048800000000001
sg5
F143.892
sg6
F4.6424800000000003e-05
sg7
F4.9822299999999999e-05
sg8
F-22.518000000000001
sg9
F0.00040910275303643724
sg10
F-31.050000000000001
sg11
F0.0018115099999999999
sg12
F0.0013960291497975709
sg13
F0.00082142490890688255
sg14
F14.34080503833516
sg15
F14.344572836801753
sg16
F14.327875136911285
sg17
F14.332135815991236
sg18
F14.319556407447971
sg19
F0.000152088512145749
sa(dp119
g3
F13.776
sg4
F0.000380429
sg5
F143.952
sg6
F4.6471399999999997e-05
sg7
F4.9781299999999997e-05
sg8
F-22.512
sg9
F0.00040910016194331989
sg10
F-31.038
sg11
F0.00181139
sg12
F0.0013958626518218624
sg13
F0.0008213840587044535
sg14
F14.434337349397593
sg15
F14.434266155531224
sg16
F14.42111719605696
sg17
F14.42779846659365
sg18
F14.42111719605696
sg19
F0.00015208721659919029
sa(dp120
g3
F13.818
sg4
F0.00038036899999999998
sg5
F143.982
sg6
F4.6519800000000001e-05
sg7
F4.9701199999999998e-05
sg8
F-22.518000000000001
sg9
F0.00040909799595141707
sg10
F-31.050000000000001
sg11
F0.00181139
sg12
F0.0013957133603238866
sg13
F0.00082137260121457488
sg14
F14.544568671963678
sg15
F14.545306469920547
sg16
F14.532934165720771
sg17
F14.540590238365501
sg18
F14.522917139614085
sg19
F0.00015209348178137652
sa(dp121
g3
F13.859999999999999
sg4
F0.00038027900000000002
sg5
F144.03
sg6
F4.65719e-05
sg7
F4.9645299999999997e-05
sg8
F-22.530000000000001
sg9
F0.00040909691295546558
sg10
F-31.038
sg11
F0.00181127
sg12
F0.0013956507085020244
sg13
F0.00082137108299595136
sg14
F14.636486946651541
sg15
F14.643558456299663
sg16
F14.61755959137345
sg17
F14.626027241770716
sg18
F14.615936435868338
sg19
F0.00015208268218623483
sa(dp122
g3
F13.896000000000001
sg4
F0.00038025
sg5
F144.066
sg6
F4.6611099999999998e-05
sg7
F4.9600600000000001e-05
sg8
F-22.524000000000001
sg9
F0.00040909561740890693
sg10
F-31.044
sg11
F0.00181127
sg12
F0.001395536032388664
sg13
F0.00082131683198380563
sg14
F14.724432463110107
sg15
F14.732678774120323
sg16
F14.724284903518736
sg17
F14.724500567536897
sg18
F14.724648127128269
sg19
F0.00015207965587044536
sa(dp123
g3
F13.962
sg4
F0.00038015999999999999
sg5
F144.13800000000001
sg6
F4.6657599999999999e-05
sg7
F4.9537299999999997e-05
sg8
F-22.518000000000001
sg9
F0.00040908480769230772
sg10
F-31.056000000000001
sg11
F0.0018111500000000001
sg12
F0.0013953673076923076
sg13
F0.00082129824898785435
sg14
F14.827763904653802
sg15
F14.839920544835417
sg16
F14.827911464245187
sg17
F14.82644154370035
sg18
F14.824597048808176
sg19
F0.0001520844028340081
sa(dp124
g3
F13.992000000000001
sg4
F0.00038010099999999998
sg5
F144.16800000000001
sg6
F4.6717200000000001e-05
sg7
F4.94795e-05
sg8
F-22.512
sg9
F0.00040908027327935225
sg10
F-31.050000000000001
sg11
F0.00181127
sg12
F0.0013952072874493927
sg13
F0.00082126582995951415
sg14
F14.942661748013625
sg15
F14.951651532349601
sg16
F14.92940408626561
sg17
F14.930658342792285
sg18
F14.924029511918276
sg19
F0.00015209283400809717
sa(dp125
g3
F14.039999999999999
sg4
F0.00038004100000000002
sg5
F144.21600000000001
sg6
F4.6761899999999997e-05
sg7
F4.9429199999999998e-05
sg8
F-22.512
sg9
F0.00040906643724696355
sg10
F-31.050000000000001
sg11
F0.0018111500000000001
sg12
F0.0013950731781376519
sg13
F0.00082123621457489879
sg14
F15.038090481786144
sg15
F15.038701527614572
sg16
F15.035804935370159
sg17
F15.037708578143368
sg18
F15.029471210340775
sg19
F0.00015208483805668018
sa(dp126
g3
F14.087999999999999
sg4
F0.00037995200000000002
sg5
F144.26400000000001
sg6
F4.6816e-05
sg7
F4.9377099999999999e-05
sg8
F-22.512
sg9
F0.00040906535425101217
sg10
F-31.038
sg11
F0.0018110299999999999
sg12
F0.0013949238866396761
sg13
F0.0008211975303643725
sg14
F15.135840188014106
sg15
F15.143542890716805
sg16
F15.121962397179793
sg17
F15.126844888366637
sg18
F15.11830199764983
sg19
F0.00015208462550607286
sa(dp127
g3
F14.118
sg4
F0.00037992199999999999
sg5
F144.28200000000001
sg6
F4.6860699999999997e-05
sg7
F4.9341700000000002e-05
sg8
F-22.518000000000001
sg9
F0.00040906535425101217
sg10
F-31.050000000000001
sg11
F0.0018110299999999999
sg12
F0.0013947746963562755
sg13
F0.00082116424089068824
sg14
F15.230393654524089
sg15
F15.241445358401888
sg16
F15.220176263219752
sg17
F15.225129259694484
sg18
F15.221316098707414
sg19
F0.00015207900809716598
sa(dp128
g3
F14.172000000000001
sg4
F0.00037983199999999998
sg5
F144.31800000000001
sg6
F4.6909100000000001e-05
sg7
F4.9280200000000003e-05
sg8
F-22.506
sg9
F0.00040907508097165994
sg10
F-31.050000000000001
sg11
F0.0018109199999999999
sg12
F0.0013945886639676114
sg13
F0.00082115668016194334
sg14
F15.333707403055239
sg15
F15.333783783783787
sg16
F15.328678025851948
sg17
F15.329365452408936
sg18
F15.323260869565221
sg19
F0.0001520924089068826
sa(dp129
g3
F14.214
sg4
F0.00037977300000000002
sg5
F144.37799999999999
sg6
F4.6950100000000003e-05
sg7
F4.9222499999999998e-05
sg8
F-22.506
sg9
F0.0004090502327935223
sg10
F-31.050000000000001
sg11
F0.0018109199999999999
sg12
F0.0013944069838056682
sg13
F0.00082107260121457493
sg14
F15.438783783783789
sg15
F15.440687426556998
sg16
F15.425058754406582
sg17
F15.430546415981208
sg18
F15.422156286721506
sg19
F0.00015208375506072874
sa(dp130
g3
F14.25
sg4
F0.000379713
sg5
F144.43199999999999
sg6
F4.7009699999999998e-05
sg7
F4.9170299999999999e-05
sg8
F-22.5
sg9
F0.00040906470647773281
sg10
F-31.038
sg11
F0.0018108
sg12
F0.0013942555668016194
sg13
F0.00082107151821862354
sg14
F15.53798669891173
sg15
F15.539866989117289
sg16
F15.524177750906899
sg17
F15.530217654171707
sg18
F15.522841596130599
sg19
F0.00015208656882591094
sa(dp131
g3
F14.273999999999999
sg4
F0.00037965399999999999
sg5
F144.45599999999999
sg6
F4.7045100000000001e-05
sg7
F4.9123799999999999e-05
sg8
F-22.494
sg9
F0.0004090552024291498
sg10
F-31.038
sg11
F0.0018108
sg12
F0.0013941214574898786
sg13
F0.00082104190283400808
sg14
F15.634727932285376
sg15
F15.645634824667471
sg16
F15.628530834340992
sg17
F15.634649334945589
sg18
F15.626807738814996
sg19
F0.00015209608299595142
sa(dp132
g3
F14.352
sg4
F0.00037962400000000001
sg5
F144.51599999999999
sg6
F4.7093499999999999e-05
sg7
F4.9067899999999998e-05
sg8
F-22.494
sg9
F0.00040906643724696355
sg10
F-31.038
sg11
F0.0018108
sg12
F0.0013940306680161945
sg13
F0.00082101985829959511
sg14
F15.725900846432888
sg15
F15.730060459492151
sg16
F15.720411124546555
sg17
F15.723470374848853
sg18
F15.721590084643294
sg19
F0.00015209412955465587
sa(dp133
g3
F14.375999999999999
sg4
F0.000379534
sg5
F144.55799999999999
sg6
F4.7136299999999998e-05
sg7
F4.9013900000000002e-05
sg8
F-22.494
sg9
F0.00040905174089068827
sg10
F-31.044
sg11
F0.0018106800000000001
sg12
F0.0013938489878542509
sg13
F0.00082098808704453438
sg14
F15.823434099153578
sg15
F15.831432889963734
sg16
F15.825157194679575
sg17
F15.822255139056839
sg18
F15.824921402660225
sg19
F0.00015208765182186235
sa(dp134
g3
F14.43
sg4
F0.00037947499999999999
sg5
F144.59399999999999
sg6
F4.7199700000000001e-05
sg7
F4.8950499999999998e-05
sg8
F-22.494
sg9
F0.00040905606275303642
sg10
F-31.032
sg11
F0.0018105599999999999
sg12
F0.0013936888663967611
sg13
F0.00082095717611336031
sg14
F15.941517533252727
sg15
F15.945284159613063
sg16
F15.93241837968562
sg17
F15.936807738815002
sg18
F15.925199516324072
sg19
F0.00015208656882591094
sa(dp135
g3
F14.465999999999999
sg4
F0.00037941500000000003
sg5
F144.63
sg6
F4.72425e-05
sg7
F4.8907699999999999e-05
sg8
F-22.488
sg9
F0.00040902969635627531
sg10
F-31.038
sg11
F0.00181044
sg12
F0.0013934834008097166
sg13
F0.00082091221659919033
sg14
F16.033784119106699
sg15
F16.036277915632763
sg16
F16.031129032258072
sg17
F16.032258064516132
sg18
F16.022915632754348
sg19
F0.00015209521255060728
sa(dp136
g3
F14.52
sg4
F0.00037932599999999998
sg5
F144.684
sg6
F4.7285299999999999e-05
sg7
F4.8838799999999997e-05
sg8
F-22.481999999999999
sg9
F0.00040903769230769236
sg10
F-31.044
sg11
F0.00181044
sg12
F0.0013933406882591093
sg13
F0.00082087201417004041
sg14
F16.135080645161299
sg15
F16.137332506203474
sg16
F16.129528535980153
sg17
F16.133629032258064
sg18
F16.123889578163773
sg19
F0.00015208202429149798
sa(dp137
g3
F14.561999999999999
sg4
F0.000379296
sg5
F144.714
sg6
F4.73226e-05
sg7
F4.8801499999999997e-05
sg8
F-22.481999999999999
sg9
F0.00040903055668016193
sg10
F-31.032
sg11
F0.00181044
sg12
F0.0013931611336032387
sg13
F0.00082084781376518228
sg14
F16.230645161290326
sg15
F16.237084367245657
sg16
F16.220415632754335
sg17
F16.222431761786602
sg18
F16.22194789081885
sg19
F0.00015208375506072874
sa(dp138
g3
F14.586
sg4
F0.00037923600000000003
sg5
F144.756
sg6
F4.7370999999999998e-05
sg7
F4.8751200000000002e-05
sg8
F-22.488
sg9
F0.00040902082995951416
sg10
F-31.032
sg11
F0.00181032
sg12
F0.0013929556680161944
sg13
F0.00082079982793522275
sg14
F16.322419354838711
sg15
F16.321451612903225
sg16
F16.322983870967743
sg17
F16.322499999999994
sg18
F16.32089330024813
sg19
F0.00015207748987854252
sa(dp139
g3
F14.646000000000001
sg4
F0.00037914699999999998
sg5
F144.798
sg6
F4.7428800000000002e-05
sg7
F4.8678599999999998e-05
sg8
F-22.481999999999999
sg9
F0.00040901650809716601
sg10
F-31.044
sg11
F0.00181032
sg12
F0.0013928064777327936
sg13
F0.00082076351214574906
sg14
F16.438511166253097
sg15
F16.445434243176166
sg16
F16.419348635235725
sg17
F16.431507444168734
sg18
F16.414925558312657
sg19
F0.00015209197368421055
sa(dp140
g3
F14.699999999999999
sg4
F0.00037908700000000001
sg5
F144.858
sg6
F4.74772e-05
sg7
F4.8619000000000003e-05
sg8
F-22.469999999999999
sg9
F0.00040901802631578948
sg10
F-31.032
sg11
F0.0018102000000000001
sg12
F0.0013926139676113359
sg13
F0.00082071769230769229
sg14
F16.541140684410635
sg15
F16.539904942965777
sg16
F16.52617237008872
sg17
F16.535544993662864
sg18
F16.52016476552598
sg19
F0.00015208224696356274
sa(dp141
g3
F14.736000000000001
sg4
F0.000379028
sg5
F144.88200000000001
sg6
F4.7518200000000002e-05
sg7
F4.8579899999999999e-05
sg8
F-22.469999999999999
sg9
F0.0004090113259109312
sg10
F-31.032
sg11
F0.0018102000000000001
sg12
F0.0013923868421052634
sg13
F0.00082067986842105257
sg14
F16.64254119138149
sg15
F16.642953105196447
sg16
F16.627737642585544
sg17
F16.633580481622303
sg18
F16.622065906210391
sg19
F0.00015208592105263159
sa(dp142
g3
F14.772
sg4
F0.00037899800000000002
sg5
F144.93000000000001
sg6
F4.7551700000000001e-05
sg7
F4.8550100000000001e-05
sg8
F-22.469999999999999
sg9
F0.00040900807692307694
sg10
F-31.032
sg11
F0.0018102000000000001
sg12
F0.0013922137651821861
sg13
F0.00082064982793522278
sg14
F16.733422053231934
sg15
F16.737534854245872
sg16
F16.721495564005068
sg17
F16.728238276299106
sg18
F16.72124841571609
sg19
F0.00015207640688259111
sa(dp143
g3
F14.837999999999999
sg4
F0.00037890899999999997
sg5
F144.99000000000001
sg6
F4.7611300000000003e-05
sg7
F4.8486699999999998e-05
sg8
F-22.457999999999998
sg9
F0.00040899986842105263
sg10
F-31.032
sg11
F0.0018102000000000001
sg12
F0.00139198016194332
sg13
F0.00082060703441295545
sg14
F16.83901774397971
sg15
F16.836634980988585
sg16
F16.830792141951836
sg17
F16.837205323193917
sg18
F16.819442332065904
sg19
F0.00015208245951417004
sa(dp144
g3
F14.862
sg4
F0.00037887899999999999
sg5
F145.01400000000001
sg6
F4.7637399999999999e-05
sg7
F4.8453199999999999e-05
sg8
F-22.457999999999998
sg9
F0.00040898711538461542
sg10
F-31.032
sg11
F0.0018100799999999999
sg12
F0.0013917942307692308
sg13
F0.00082056553643724704
sg14
F16.927097591888465
sg15
F16.930304182509506
sg16
F16.928662864385299
sg17
F16.929974651457531
sg18
F16.922078580481617
sg19
F0.0001520841902834008
sa(dp145
g3
F14.898
sg4
F0.00037881900000000002
sg5
F145.05000000000001
sg6
F4.7678400000000001e-05
sg7
F4.8397299999999998e-05
sg8
F-22.452000000000002
sg9
F0.00040897392712550612
sg10
F-31.026
sg11
F0.0018100799999999999
sg12
F0.0013915800607287448
sg13
F0.00082051193319838055
sg14
F17.042777061855666
sg15
F17.04695876288659
sg16
F17.030148195876279
sg17
F17.035921391752577
sg18
F17.021952319587626
sg19
F0.00015207533400809716
sa(dp146
g3
F14.94
sg4
F0.00037876000000000001
sg5
F145.09200000000001
sg6
F4.7719300000000002e-05
sg7
F4.8350799999999998e-05
sg8
F-22.452000000000002
sg9
F0.00040897609311740893
sg10
F-31.026
sg11
F0.00180996
sg12
F0.0013914653846153846
sg13
F0.00082047843117408897
sg14
F17.131662371134023
sg15
F17.133923969072157
sg16
F17.126978092783506
sg17
F17.127731958762883
sg18
F17.123885309278347
sg19
F0.00015207705465587046
sa(dp147
g3
F14.994
sg4
F0.00037869999999999999
sg5
F145.12799999999999
sg6
F4.7769599999999997e-05
sg7
F4.8293e-05
sg8
F-22.457999999999998
sg9
F0.00040897371457489879
sg10
F-31.026
sg11
F0.0018098400000000001
sg12
F0.0013911453441295548
sg13
F0.00082041596153846149
sg14
F17.2416237113402
sg15
F17.24279639175257
sg16
F17.231920103092779
sg17
F17.236018041237113
sg18
F17.223730670103084
sg19
F0.00015207035425101215
sa(dp148
g3
F15.023999999999999
sg4
F0.00037867
sg5
F145.15799999999999
sg6
F4.7782699999999999e-05
sg7
F4.8261399999999998e-05
sg8
F-22.452000000000002
sg9
F0.00040896398785425102
sg10
F-31.032
sg11
F0.0018098400000000001
sg12
F0.001390996052631579
sg13
F0.00082036279352226725
sg14
F17.329922680412373
sg15
F17.330425257731953
sg16
F17.325908505154629
sg17
F17.325077319587621
sg18
F17.32306701030927
sg19
F0.00015206797570850201
sa(dp149
g3
F15.077999999999999
sg4
F0.00037858100000000001
sg5
F145.21799999999999
sg6
F4.7849699999999997e-05
sg7
F4.8198000000000002e-05
sg8
F-22.452000000000002
sg9
F0.00040894561740890695
sg10
F-31.026
sg11
F0.0018098400000000001
sg12
F0.0013906867408906881
sg13
F0.00082031891700404865
sg14
F17.44414948453608
sg15
F17.443144329896903
sg16
F17.426752577319583
sg17
F17.437789948453613
sg18
F17.418814432989688
sg19
F0.00015206344129554654
sa(dp150
g3
F15.114000000000001
sg4
F0.00037852099999999999
sg5
F145.24799999999999
sg6
F4.7892600000000003e-05
sg7
F4.8149599999999997e-05
sg8
F-22.446000000000002
sg9
F0.0004089343825910931
sg10
F-31.013999999999999
sg11
F0.0018097199999999999
sg12
F0.0013904964574898786
sg13
F0.00082026401821862346
sg14
F17.532787206266317
sg15
F17.540241514360314
sg16
F17.518981723237594
sg17
F17.524823759791122
sg18
F17.518642297650132
sg19
F0.00015206365384615387
sa(dp151
g3
F15.162000000000001
sg4
F0.00037846199999999998
sg5
F145.30799999999999
sg6
F4.7944700000000002e-05
sg7
F4.8108600000000002e-05
sg8
F-22.440000000000001
sg9
F0.00040893891700404856
sg10
F-31.026
sg11
F0.0018097199999999999
sg12
F0.0013902736842105262
sg13
F0.00082022381578947365
sg14
F17.634275456919063
sg15
F17.639014360313318
sg16
F17.625463446475198
sg17
F17.628342036553526
sg18
F17.619530026109661
sg19
F0.00015206494939271257
sa(dp152
g3
F15.204000000000001
sg4
F0.00037840200000000001
sg5
F145.34999999999999
sg6
F4.7970799999999998e-05
sg7
F4.8056500000000003e-05
sg8
F-22.428000000000001
sg9
F0.00040892011133603236
sg10
F-31.026
sg11
F0.0018097199999999999
sg12
F0.001389998987854251
sg13
F0.00082016848178137654
sg14
F17.73710835509138
sg15
F17.737278067885111
sg16
F17.728133159268932
sg17
F17.730842036553529
sg18
F17.725424281984335
sg19
F0.00015205523279352226
sa(dp153
g3
F15.246
sg4
F0.00037834199999999999
sg5
F145.386
sg6
F4.8026699999999999e-05
sg7
F4.80025e-05
sg8
F-22.428000000000001
sg9
F0.0004089499392712551
sg10
F-31.013999999999999
sg11
F0.0018097199999999999
sg12
F0.0013898994939271255
sg13
F0.00082017474696356274
sg14
F17.835541775456917
sg15
F17.842493472584856
sg16
F17.826312010443868
sg17
F17.831481723237591
sg18
F17.82114229765013
sg19
F0.00015207446356275305
sa(dp154
g3
F15.294
sg4
F0.00037828299999999998
sg5
F145.44
sg6
F4.80583e-05
sg7
F4.7965199999999999e-05
sg8
F-22.422000000000001
sg9
F0.00040892572874493926
sg10
F-31.013999999999999
sg11
F0.0018096
sg12
F0.0013896247975708504
sg13
F0.0008201181275303643
sg14
F17.933727154046988
sg15
F17.934314621409921
sg16
F17.925254569190599
sg17
F17.929830287206254
sg18
F17.919490861618797
sg19
F0.0001520694939271255
sa(dp155
g3
F15.324
sg4
F0.000378253
sg5
F145.452
sg6
F4.8084400000000003e-05
sg7
F4.7918599999999999e-05
sg8
F-22.422000000000001
sg9
F0.00040892292510121453
sg10
F-31.02
sg11
F0.0018096
sg12
F0.0013894344129554656
sg13
F0.00082007554655870452
sg14
F18.031217105263153
sg15
F18.0394144736842
sg16
F18.016789473684213
sg17
F18.02105921052631
sg18
F18.018578947368415
sg19
F0.00015206085020242916
sa(dp156
g3
F15.396000000000001
sg4
F0.00037822300000000001
sg5
F145.506
sg6
F4.81291e-05
sg7
F4.78851e-05
sg8
F-22.416
sg9
F0.0004089106072874494
sg10
F-31.026
sg11
F0.0018096
sg12
F0.0013891986842105263
sg13
F0.00082001739878542518
sg14
F18.132901315789471
sg15
F18.137769736842095
sg16
F18.12044078947368
sg17
F18.126927631578948
sg18
F18.119585526315785
sg19
F0.00015205652834008096
sa(dp157
g3
F15.444000000000001
sg4
F0.00037813400000000002
sg5
F145.548
sg6
F4.8177499999999997e-05
sg7
F4.7829199999999999e-05
sg8
F-22.41
sg9
F0.00040890779352226723
sg10
F-31.013999999999999
sg11
F0.0018096
sg12
F0.0013889542510121457
sg13
F0.00081997136639676109
sg14
F18.240907894736836
sg15
F18.248078947368409
sg16
F18.233394736842094
sg17
F18.238861842105262
sg18
F18.22357894736842
sg19
F0.00015206797570850201
sa(dp158
g3
F15.456
sg4
F0.00037810399999999998
sg5
F145.596
sg6
F4.8218499999999999e-05
sg7
F4.7782699999999999e-05
sg8
F-22.416
sg9
F0.00040891405870445343
sg10
F-31.007999999999999
sg11
F0.00180949
sg12
F0.001388737955465587
sg13
F0.00081990911943319842
sg14
F18.327486842105262
sg15
F18.330815789473686
sg16
F18.319374999999997
sg17
F18.325434210526314
sg18
F18.314506578947356
sg19
F0.00015207208502024294
sa(dp159
g3
F15.516
sg4
F0.00037801499999999999
sg5
F145.626
sg6
F4.8250200000000001e-05
sg7
F4.7734200000000001e-05
sg8
F-22.41
sg9
F0.00040889115384615385
sg10
F-31.02
sg11
F0.00180949
sg12
F0.0013884156882591093
sg13
F0.00081985032388663974
sg14
F18.438138157894731
sg15
F18.443171052631573
sg16
F18.422855263157889
sg17
F18.432157894736836
sg18
F18.418842105263149
sg19
F0.00015205976720647773
sa(dp160
g3
F15.552
sg4
F0.00037795500000000002
sg5
F145.66800000000001
sg6
F4.8293e-05
sg7
F4.7682100000000002e-05
sg8
F-22.41
sg9
F0.00040888531376518224
sg10
F-31.02
sg11
F0.00180937
sg12
F0.0013882816801619434
sg13
F0.00081981163967611344
sg14
F18.546798418972333
sg15
F18.552700922266133
sg16
F18.526284584980225
sg17
F18.533722002635031
sg18
F18.520296442687734
sg19
F0.00015205025303643724
sa(dp161
g3
F15.582000000000001
sg4
F0.00037792499999999998
sg5
F145.69200000000001
sg6
F4.8319100000000003e-05
sg7
F4.7644800000000002e-05
sg8
F-22.398
sg9
F0.00040887212550607289
sg10
F-31.02
sg11
F0.0018092500000000001
sg12
F0.0013879225708502024
sg13
F0.00081973814777327927
sg14
F18.619637681159411
sg15
F18.632720685111984
sg16
F18.621350461133066
sg17
F18.621521739130429
sg18
F18.622635046113295
sg19
F0.00015204377530364372
sa(dp162
g3
F15.641999999999999
sg4
F0.00037786599999999998
sg5
F145.75800000000001
sg6
F4.8367500000000001e-05
sg7
F4.7598300000000001e-05
sg8
F-22.385999999999999
sg9
F0.00040888055668016196
sg10
F-31.001999999999999
sg11
F0.0018092500000000001
sg12
F0.0013877235829959514
sg13
F0.00081971286437246965
sg14
F18.734110671936754
sg15
F18.737193675889326
sg16
F18.723254281949927
sg17
F18.73052042160737
sg18
F18.718807641633727
sg19
F0.00015205868421052632
sa(dp163
g3
F15.678000000000001
sg4
F0.00037780600000000001
sg5
F145.76400000000001
sg6
F4.8404800000000001e-05
sg7
F4.7551700000000001e-05
sg8
F-22.391999999999999
sg9
F0.00040887775303643728
sg10
F-30.995999999999999
sg11
F0.0018092500000000001
sg12
F0.0013875441295546557
sg13
F0.0008196696356275304
sg14
F18.830718050065876
sg15
F18.838926218708821
sg16
F18.821231884057962
sg17
F18.827812911725953
sg18
F18.817384716732541
sg19
F0.00015205824898785426
sa(dp164
g3
F15.714
sg4
F0.00037777600000000002
sg5
F145.81200000000001
sg6
F4.8429e-05
sg7
F4.7512600000000003e-05
sg8
F-22.391999999999999
sg9
F0.00040886045546558705
sg10
F-31.013999999999999
sg11
F0.0018092500000000001
sg12
F0.0013872152834008098
sg13
F0.00081959420040485828
sg14
F18.932971014492747
sg15
F18.935533596837942
sg16
F18.929631093544124
sg17
F18.930487483530953
sg18
F18.925019762845835
sg19
F0.00015204982793522268
sa(dp165
g3
F15.762
sg4
F0.000377716
sg5
F145.84200000000001
sg6
F4.8477399999999998e-05
sg7
F4.7456700000000003e-05
sg8
F-22.385999999999999
sg9
F0.00040885569838056683
sg10
F-31.02
sg11
F0.0018091299999999999
sg12
F0.0013869363360323886
sg13
F0.00081954168016194328
sg14
F19.030865006553075
sg15
F19.031376146788993
sg16
F19.02465923984272
sg17
F19.029416775884659
sg18
F19.016834862385316
sg19
F0.00015205392712550606
sa(dp166
g3
F15.821999999999999
sg4
F0.00037765699999999999
sg5
F145.90199999999999
sg6
F4.8512800000000001e-05
sg7
F4.7425000000000001e-05
sg8
F-22.379999999999999
sg9
F0.00040884381578947372
sg10
F-31.007999999999999
sg11
F0.0018091299999999999
sg12
F0.0013867784412955467
sg13
F0.00081949650809716597
sg14
F19.124154652686762
sg15
F19.131979030144169
sg16
F19.119141546526865
sg17
F19.120242463958061
sg18
F19.118715596330272
sg19
F0.00015204982793522268
sa(dp167
g3
F15.869999999999999
sg4
F0.00037756699999999999
sg5
F145.93199999999999
sg6
F4.8557499999999997e-05
sg7
F4.7374699999999999e-05
sg8
F-22.373999999999999
sg9
F0.00040883214574898783
sg10
F-31.013999999999999
sg11
F0.00180901
sg12
F0.0013865880566801621
sg13
F0.00081944268218623478
sg14
F19.247811271297511
sg15
F19.250445609436433
sg16
F19.227483617300138
sg17
F19.238794233289649
sg18
F19.217876802096985
sg19
F0.00015204636639676116
sa(dp168
g3
F15.9
sg4
F0.00037756699999999999
sg5
F145.94999999999999
sg6
F4.8585499999999998e-05
sg7
F4.7348700000000003e-05
sg8
F-22.379999999999999
sg9
F0.00040882112348178141
sg10
F-31.001999999999999
sg11
F0.00180901
sg12
F0.0013863285425101215
sg13
F0.00081939470647773274
sg14
F19.314993446920052
sg15
F19.31678243774574
sg16
F19.316356487549143
sg17
F19.315078636959377
sg18
F19.318905635648754
sg19
F0.00015204183198380569
sa(dp169
g3
F15.942
sg4
F0.00037750799999999998
sg5
F146.00399999999999
sg6
F4.8613399999999998e-05
sg7
F4.7311400000000002e-05
sg8
F-22.373999999999999
sg9
F0.00040882090080971665
sg10
F-31.013999999999999
sg11
F0.00180901
sg12
F0.0013860473684210526
sg13
F0.00081933785425101211
sg14
F19.426487549148099
sg15
F19.433630406290966
sg16
F19.421979030144172
sg17
F19.422916120576684
sg18
F19.427169069462654
sg19
F0.00015204787449392713
sa(dp170
g3
F15.972
sg4
F0.00037747799999999999
sg5
F146.00999999999999
sg6
F4.8641299999999998e-05
sg7
F4.7266699999999999e-05
sg8
F-22.379999999999999
sg9
F0.00040882241902834006
sg10
F-30.995999999999999
sg11
F0.00180901
sg12
F0.0013858050607287451
sg13
F0.00081930219635627537
sg14
F19.52514226590792
sg15
F19.529002845318164
sg16
F19.521281686497677
sg17
F19.524385669943101
sg18
F19.521281686497677
sg19
F0.00015203966599190285
sa(dp171
g3
F16.038
sg4
F0.00037741800000000002
sg5
F146.08199999999999
sg6
F4.8687899999999998e-05
sg7
F4.7218300000000002e-05
sg8
F-22.361999999999998
sg9
F0.00040880317813765183
sg10
F-31.001999999999999
sg11
F0.0018088900000000001
sg12
F0.0013856882591093119
sg13
F0.00081925205465587046
sg14
F19.644897827211601
sg15
F19.646747284014484
sg16
F19.629539575788932
sg17
F19.634577082255564
sg18
F19.623331608898084
sg19
F0.00015204139676113361
sa(dp172
g3
F16.062000000000001
sg4
F0.00037735900000000002
sg5
F146.10599999999999
sg6
F4.8715899999999999e-05
sg7
F4.7182899999999998e-05
sg8
F-22.361999999999998
sg9
F0.00040878912955465591
sg10
F-31.001999999999999
sg11
F0.0018088900000000001
sg12
F0.0013854266194331985
sg13
F0.00081919931174089064
sg14
F19.735366011381281
sg15
F19.731001034661148
sg16
F19.734363683393699
sg17
F19.735534143817905
sg18
F19.727812984997417
sg19
F0.00015203555668016195
sa(dp173
g3
F16.097999999999999
sg4
F0.00037732899999999998
sg5
F146.136
sg6
F4.8751200000000002e-05
sg7
F4.7141899999999997e-05
sg8
F-22.350000000000001
sg9
F0.00040878524291497979
sg10
F-31.007999999999999
sg11
F0.0018088900000000001
sg12
F0.0013851670040485829
sg13
F0.00081915305668016196
sg14
F19.826674857734094
sg15
F19.833807553026389
sg16
F19.815009053285049
sg17
F19.821048887739273
sg18
F19.818533367822042
sg19
F0.00015203253036437248
sa(dp174
g3
F16.128
sg4
F0.00037723999999999999
sg5
F146.166
sg6
F4.8769900000000002e-05
sg7
F4.7100900000000002e-05
sg8
F-22.356000000000002
sg9
F0.00040877745951417002
sg10
F-30.995999999999999
sg11
F0.0018088900000000001
sg12
F0.0013849615384615385
sg13
F0.00081911155870445344
sg14
F19.936866270046558
sg15
F19.939718054837037
sg16
F19.918901965856186
sg17
F19.92670719089498
sg18
F19.914207190894988
sg19
F0.00015202756072874496
sa(dp175
g3
F16.175999999999998
sg4
F0.00037721
sg5
F146.22
sg6
F4.8807100000000002e-05
sg7
F4.7073000000000001e-05
sg8
F-22.350000000000001
sg9
F0.00040877572874493929
sg10
F-30.995999999999999
sg11
F0.0018087699999999999
sg12
F0.0013847431174089069
sg13
F0.00081906746963562752
sg14
F20.030172839506179
sg15
F20.035543209876543
sg16
F20.020080246913587
sg17
F20.029456790123454
sg18
F20.018320987654327
sg19
F0.00015203858299595141
sa(dp176
g3
F16.218
sg4
F0.00037714999999999998
sg5
F146.256
sg6
F4.8833199999999999e-05
sg7
F4.7026400000000001e-05
sg8
F-22.350000000000001
sg9
F0.00040876081983805675
sg10
F-31.001999999999999
sg11
F0.00180865
sg12
F0.0013845138663967614
sg13
F0.00081900240890688252
sg14
F20.140166666666666
sg15
F20.140808641975312
sg16
F20.130475308641977
sg17
F20.135598765432103
sg18
F20.122543209876543
sg19
F0.00015202885627530366
sa(dp177
g3
F16.23
sg4
F0.00037711999999999999
sg5
F146.28
sg6
F4.8863000000000003e-05
sg7
F4.6996600000000003e-05
sg8
F-22.344000000000001
sg9
F0.00040875865384615382
sg10
F-31.001999999999999
sg11
F0.00180865
sg12
F0.0013843105263157897
sg13
F0.00081896502024291493
sg14
F20.22652469135803
sg15
F20.237580246913588
sg16
F20.21322839506173
sg17
F20.219716049382722
sg18
F20.215950617283951
sg19
F0.00015203015182186234
sa(dp178
g3
F16.277999999999999
sg4
F0.00037711999999999999
sg5
F146.298
sg6
F4.8890900000000003e-05
sg7
F4.6959400000000003e-05
sg8
F-22.344000000000001
sg9
F0.00040875994939271258
sg10
F-31.001999999999999
sg11
F0.00180865
sg12
F0.00138408987854251
sg13
F0.00081889952429149801
sg14
F20.331549382716055
sg15
F20.334351851851849
sg16
F20.32265432098766
sg17
F20.32954320987654
sg18
F20.316648148148158
sg19
F0.00015202518218623482
sa(dp179
g3
F16.308
sg4
F0.000377031
sg5
F146.352
sg6
F4.8918899999999997e-05
sg7
F4.6925899999999997e-05
sg8
F-22.344000000000001
sg9
F0.00040874007085020243
sg10
F-30.995999999999999
sg11
F0.00180865
sg12
F0.0013838174089068826
sg13
F0.00081886494939271254
sg14
F20.43753086419753
sg15
F20.437771604938273
sg16
F20.421506172839511
sg17
F20.429358024691354
sg18
F20.41702469135803
sg19
F0.0001520256174089069
sa(dp180
g3
F16.356000000000002
sg4
F0.00037697099999999998
sg5
F146.376
sg6
F4.8946799999999997e-05
sg7
F4.6875600000000002e-05
sg8
F-22.332000000000001
sg9
F0.00040872299595141702
sg10
F-30.995999999999999
sg11
F0.00180853
sg12
F0.0013835254048582997
sg13
F0.0008187903744939272
sg14
F20.533740740740743
sg15
F20.539191358024699
sg16
F20.521006172839503
sg17
F20.531339506172838
sg18
F20.517481481481479
sg19
F0.00015201870445344129
sa(dp181
g3
F16.379999999999999
sg4
F0.00037697099999999998
sg5
F146.41200000000001
sg6
F4.8976600000000001e-05
sg7
F4.6836399999999998e-05
sg8
F-22.332000000000001
sg9
F0.00040873423076923077
sg10
F-30.995999999999999
sg11
F0.00180853
sg12
F0.0013833545546558703
sg13
F0.00081875774291497979
sg14
F20.635080246913581
sg15
F20.641166666666674
sg16
F20.629395061728395
sg17
F20.631796296296301
sg18
F20.626111111111111
sg19
F0.00015203382591093118
sa(dp182
g3
F16.416
sg4
F0.00037691200000000003
sg5
F146.43600000000001
sg6
F4.9004600000000002e-05
sg7
F4.6814100000000003e-05
sg8
F-22.338000000000001
sg9
F0.00040871262145748989
sg10
F-31.007999999999999
sg11
F0.00180853
sg12
F0.0013830669028340084
sg13
F0.00081868813765182194
sg14
F20.730012345679015
sg15
F20.735617283950614
sg16
F20.719913580246914
sg17
F20.727444444444455
sg18
F20.720475308641973
sg19
F0.00015201762145748988
sa(dp183
g3
F16.440000000000001
sg4
F0.000376852
sg5
F146.45400000000001
sg6
F4.9019500000000001e-05
sg7
F4.6784299999999999e-05
sg8
F-22.32
sg9
F0.00040871737854251012
sg10
F-30.989999999999998
sg11
F0.00180853
sg12
F0.0013828202429149797
sg13
F0.00081864815789473684
sg14
F20.815487654320989
sg15
F20.820771604938276
sg16
F20.817166666666676
sg17
F20.813320987654318
sg18
F20.818771604938274
sg19
F0.00015201394736842107
sa(dp184
g3
F16.475999999999999
sg4
F0.00037682200000000002
sg5
F146.50200000000001
sg6
F4.9052999999999999e-05
sg7
F4.6739600000000002e-05
sg8
F-22.32
sg9
F0.00040870721659919031
sg10
F-30.984000000000002
sg11
F0.00180853
sg12
F0.0013826364372469637
sg13
F0.00081859714574898787
sg14
F20.926037037037041
sg15
F20.926679012345687
sg16
F20.926197530864201
sg17
F20.928759259259262
sg18
F20.925395061728395
sg19
F0.00015202042510121459
sa(dp185
g3
F16.518000000000001
sg4
F0.000376793
sg5
F146.53200000000001
sg6
F4.9086499999999998e-05
sg7
F4.6693000000000002e-05
sg8
F-22.32
sg9
F0.00040870959514170045
sg10
F-30.978000000000002
sg11
F0.0018084100000000001
sg12
F0.0013823358299595143
sg13
F0.00081855521255060732
sg14
F21.029603754466436
sg15
F21.031193003039839
sg16
F21.024617353741132
sg17
F21.026211935363452
sg18
F21.021918830995677
sg19
F0.00015202021255060729
sa(dp186
g3
F16.565999999999999
sg4
F0.00037673300000000003
sg5
F146.58000000000001
sg6
F4.91182e-05
sg7
F4.66614e-05
sg8
F-22.302
sg9
F0.00040870051619433203
sg10
F-30.984000000000002
sg11
F0.0018084100000000001
sg12
F0.0013821108299595141
sg13
F0.00081849924089068835
sg14
F21.130371713508616
sg15
F21.136600714628557
sg16
F21.131758306223674
sg17
F21.135982080955678
sg18
F21.122206815636506
sg19
F0.00015200768218623481
sa(dp187
g3
F16.596
sg4
F0.00037670299999999999
sg5
F146.61000000000001
sg6
F4.9142399999999999e-05
sg7
F4.6622200000000002e-05
sg8
F-22.308
sg9
F0.00040868949392712549
sg10
F-30.984000000000002
sg11
F0.0018084100000000001
sg12
F0.0013818556680161944
sg13
F0.00081846206477732798
sg14
F21.233912857980911
sg15
F21.242840381846307
sg16
F21.225331982294279
sg17
F21.230867687056691
sg18
F21.222148152098558
sg19
F0.00015202626518218625
sa(dp188
g3
F16.632000000000001
sg4
F0.00037664399999999998
sg5
F146.65199999999999
sg6
F4.9162900000000003e-05
sg7
F4.6592399999999998e-05
sg8
F-22.308
sg9
F0.00040867350202429152
sg10
F-30.978000000000002
sg11
F0.0018084100000000001
sg12
F0.0013816285425101217
sg13
F0.00081839808704453447
sg14
F21.328590475174664
sg15
F21.327278545144257
sg16
F21.322569462961983
sg17
F21.327139885872754
sg18
F21.321673510746098
sg19
F0.00015201480769230769
sa(dp189
g3
F16.673999999999999
sg4
F0.000376614
sg5
F146.70599999999999
sg6
F4.9190799999999997e-05
sg7
F4.65533e-05
sg8
F-22.295999999999999
sg9
F0.0004086732793522267
sg10
F-30.978000000000002
sg11
F0.0018082899999999999
sg12
F0.0013813819838056681
sg13
F0.00081833756072874494
sg14
F21.42355074396033
sg15
F21.424654685083464
sg16
F21.42147085488774
sg17
F21.426249266705785
sg18
F21.417599061383395
sg19
F0.00015202453441295546
sa(dp190
g3
F16.728000000000002
sg4
F0.00037655399999999997
sg5
F146.71199999999999
sg6
F4.9228099999999997e-05
sg7
F4.65161e-05
sg8
F-22.289999999999999
sg9
F0.00040866549595141698
sg10
F-30.972000000000001
sg11
F0.0018082899999999999
sg12
F0.0013811483805668016
sg13
F0.0008182856882591094
sg14
F21.529651751906567
sg15
F21.535187456668979
sg16
F21.525497306810305
sg17
F21.529929070449583
sg18
F21.522313476614581
sg19
F0.00015201805668016194
sa(dp191
g3
F16.763999999999999
sg4
F0.00037652399999999999
sg5
F146.76599999999999
sg6
F4.9252300000000003e-05
sg7
F4.6482500000000001e-05
sg8
F-22.271999999999998
sg9
F0.00040866377530364374
sg10
F-30.972000000000001
sg11
F0.00180817
sg12
F0.0013808953441295548
sg13
F0.00081823986842105264
sg14
F21.624953335822088
sg15
F21.630627699856017
sg16
F21.618585675430644
sg17
F21.619694949602696
sg18
F21.617684390165863
sg19
F0.00015200702429149797
sa(dp192
g3
F16.788
sg4
F0.00037649500000000002
sg5
F146.80199999999999
sg6
F4.9267200000000002e-05
sg7
F4.6463900000000001e-05
sg8
F-22.277999999999999
sg9
F0.00040865079959514171
sg10
F-30.960000000000001
sg11
F0.00180817
sg12
F0.0013806746963562753
sg13
F0.00081818647773279358
sg14
F21.730985014132578
sg15
F21.730707695589572
sg16
F21.727662524665352
sg17
F21.727523865393849
sg18
F21.72336942029759
sg19
F0.0001520039979757085
sa(dp193
g3
F16.824000000000002
sg4
F0.000376435
sg5
F146.81399999999999
sg6
F4.93007e-05
sg7
F4.6411800000000002e-05
sg8
F-22.271999999999998
sg9
F0.0004086337246963563
sg10
F-30.978000000000002
sg11
F0.0018080500000000001
sg12
F0.0013804086032388665
sg13
F0.00081813590080971653
sg14
F21.830718361687381
sg15
F21.835491440456519
sg16
F21.82144418964322
sg17
F21.825246653511819
sg18
F21.815556503653148
sg19
F0.00015199535425101213
sa(dp194
g3
F16.841999999999999
sg4
F0.00037640500000000001
sg5
F146.84399999999999
sg6
F4.9324899999999999e-05
sg7
F4.6383800000000001e-05
sg8
F-22.277999999999999
sg9
F0.00040862270242914976
sg10
F-30.966000000000001
sg11
F0.00180817
sg12
F0.0013801447368421052
sg13
F0.00081805766194331978
sg14
F21.934808810196799
sg15
F21.938061970028265
sg16
F21.928025171990829
sg17
F21.934462162018033
sg18
F21.926089275238663
sg19
F0.00015199881578947368
sa(dp195
g3
F16.884
sg4
F0.00037637499999999997
sg5
F146.85599999999999
sg6
F4.9338000000000001e-05
sg7
F4.6344699999999997e-05
sg8
F-22.277999999999999
sg9
F0.00040860714574898787
sg10
F-30.978000000000002
sg11
F0.0018080500000000001
sg12
F0.0013799154858299596
sg13
F0.00081800925101214582
sg14
F22.035841674249323
sg15
F22.034012738853512
sg16
F22.027929936305735
sg17
F22.035195632393087
sg18
F22.017834394904465
sg19
F0.00015199103238866396
sa(dp196
g3
F16.908000000000001
sg4
F0.00037631600000000002
sg5
F146.898
sg6
F4.9360300000000002e-05
sg7
F4.6313000000000002e-05
sg8
F-22.265999999999998
sg9
F0.00040861124493927131
sg10
F-30.966000000000001
sg11
F0.0018080500000000001
sg12
F0.0013796365384615384
sg13
F0.00081795175101214573
sg14
F22.130846223839857
sg15
F22.130668789808919
sg16
F22.12216560509555
sg17
F22.125177434030945
sg18
F22.117679708826209
sg19
F0.00015200983805668017
sa(dp197
g3
F16.968
sg4
F0.00037628599999999998
sg5
F146.934
sg6
F4.9395699999999999e-05
sg7
F4.6277699999999999e-05
sg8
F-22.260000000000002
sg9
F0.00040860541497975708
sg10
F-30.966000000000001
sg11
F0.0018080500000000001
sg12
F0.0013793314777327936
sg13
F0.00081789599190283397
sg14
F22.235823475887177
sg15
F22.235054595086446
sg16
F22.219467697907191
sg17
F22.229977252047313
sg18
F22.215040946314836
sg19
F0.00015199535425101213
sa(dp198
g3
F16.986000000000001
sg4
F0.00037622600000000001
sg5
F146.976
sg6
F4.94274e-05
sg7
F4.6240399999999999e-05
sg8
F-22.265999999999998
sg9
F0.00040858466599190282
sg10
F-30.972000000000001
sg11
F0.0018080500000000001
sg12
F0.0013791433198380566
sg13
F0.00081785405870445343
sg14
F22.344285714285718
sg15
F22.34741583257507
sg16
F22.329699727024572
sg17
F22.338616924476796
sg18
F22.318425841674248
sg19
F0.00015199449392712551
sa(dp199
g3
F17.010000000000002
sg4
F0.00037622600000000001
sg5
F146.988
sg6
F4.9444100000000003e-05
sg7
F4.6219900000000001e-05
sg8
F-22.265999999999998
sg9
F0.00040858163967611339
sg10
F-30.966000000000001
sg11
F0.0018079400000000001
sg12
F0.0013788145748987854
sg13
F0.00081777754048582992
sg14
F22.423817106460419
sg15
F22.427829845313919
sg16
F22.416378525932664
sg17
F22.420746132848048
sg18
F22.417438580527755
sg19
F0.00015199989878542512
sa(dp200
g3
F17.052
sg4
F0.00037613700000000002
sg5
F147.024
sg6
F4.9457199999999998e-05
sg7
F4.6173300000000001e-05
sg8
F-22.254000000000001
sg9
F0.00040856953441295547
sg10
F-30.966000000000001
sg11
F0.0018079400000000001
sg12
F0.001378544230769231
sg13
F0.00081771896761133605
sg14
F22.53481801637853
sg15
F22.540368516833485
sg16
F22.523953594176529
sg17
F22.530154686078252
sg18
F22.519053685168338
sg19
F0.00015198088056680162
sa(dp201
g3
F17.100000000000001
sg4
F0.00037613700000000002
sg5
F147.078
sg6
F4.94795e-05
sg7
F4.6141699999999999e-05
sg8
F-22.248000000000001
sg9
F0.00040856391700404862
sg10
F-30.966000000000001
sg11
F0.0018079400000000001
sg12
F0.0013783214574898785
sg13
F0.00081765931174089068
sg14
F22.63023202911738
sg15
F22.632179253867157
sg16
F22.624504094631483
sg17
F22.625509554140127
sg18
F22.616296633303008
sg19
F0.00015199125506072875
sa(dp202
g3
F17.111999999999998
sg4
F0.000376077
sg5
F147.102
sg6
F4.9501900000000001e-05
sg7
F4.6121200000000002e-05
sg8
F-22.248000000000001
sg9
F0.00040856412955465584
sg10
F-30.966000000000001
sg11
F0.0018079400000000001
sg12
F0.0013780035425101215
sg13
F0.00081761219635627532
sg14
F22.731196542311196
sg15
F22.737925386715197
sg16
F22.728657870791622
sg17
F22.72782984531392
sg18
F22.725113739763419
sg19
F0.00015198822874493929
sa(dp203
g3
F17.154
sg4
F0.00037604799999999997
sg5
F147.126
sg6
F4.9533600000000003e-05
sg7
F4.6085799999999998e-05
sg8
F-22.242000000000001
sg9
F0.00040854100202429149
sg10
F-30.966000000000001
sg11
F0.0018079400000000001
sg12
F0.0013778152834008099
sg13
F0.00081755535425101218
sg14
F22.834758871701546
sg15
F22.834226569608735
sg16
F22.8253093721565
sg17
F22.829504094631485
sg18
F22.816278434940852
sg19
F0.00015199146761133605
sa(dp204
g3
F17.196000000000002
sg4
F0.00037601799999999999
sg5
F147.15600000000001
sg6
F4.9550299999999999e-05
sg7
F4.6059700000000002e-05
sg8
F-22.23
sg9
F0.00040854359311740895
sg10
F-30.966000000000001
sg11
F0.0018078199999999999
sg12
F0.0013774994939271255
sg13
F0.00081749980769230774
sg14
F22.937079162875335
sg15
F22.939440400363967
sg16
F22.924913557779803
sg17
F22.934895359417656
sg18
F22.919071883530478
sg19
F0.00015198476720647774
sa(dp205
g3
F17.213999999999999
sg4
F0.00037598800000000001
sg5
F147.18600000000001
sg6
F4.9567100000000002e-05
sg7
F4.6022500000000002e-05
sg8
F-22.23
sg9
F0.00040853235829959515
sg10
F-30.966000000000001
sg11
F0.0018079400000000001
sg12
F0.0013771340080971659
sg13
F0.00081742934210526322
sg14
F23.026252182086747
sg15
F23.036450919833484
sg16
F23.028434268833081
sg17
F23.027823284544105
sg18
F23.018584664965754
sg19
F0.00015198260121457489
sa(dp206
g3
F17.256
sg4
F0.00037598800000000001
sg5
F147.21600000000001
sg6
F4.9578299999999999e-05
sg7
F4.6013200000000002e-05
sg8
F-22.224
sg9
F0.00040852371457489881
sg10
F-30.948
sg11
F0.0018079400000000001
sg12
F0.0013769544534412957
sg13
F0.00081738936234817823
sg14
F23.130992345911107
sg15
F23.136041358936485
sg16
F23.118007251242105
sg17
F23.120880891634219
sg18
F23.121753726332756
sg19
F0.00015198497975708503
sa(dp207
g3
F17.274000000000001
sg4
F0.00037595800000000002
sg5
F147.24600000000001
sg6
F4.9587599999999999e-05
sg7
F4.59908e-05
sg8
F-22.224
sg9
F0.00040850879554655872
sg10
F-30.960000000000001
sg11
F0.0018078199999999999
sg12
F0.001376643016194332
sg13
F0.00081730096153846167
sg14
F23.228581979320534
sg15
F23.227709144621997
sg16
F23.227360010742586
sg17
F23.229797233785412
sg18
F23.223700819121795
sg19
F0.0001519746052631579
sa(dp208
g3
F17.292000000000002
sg4
F0.00037589900000000001
sg5
F147.27000000000001
sg6
F4.9617399999999997e-05
sg7
F4.5957300000000001e-05
sg8
F-22.224
sg9
F0.00040849150809716599
sg10
F-30.948
sg11
F0.0018078199999999999
sg12
F0.0013763683198380569
sg13
F0.00081724433198380564
sg14
F23.32163958641063
sg15
F23.329132536591917
sg16
F23.312051832952871
sg17
F23.310917147844766
sg18
F23.315711024573645
sg19
F0.00015197395748987855
sa(dp209
g3
F17.321999999999999
sg4
F0.00037583899999999999
sg5
F147.29400000000001
sg6
F4.9637900000000001e-05
sg7
F4.5933100000000002e-05
sg8
F-22.218
sg9
F0.00040847508097165993
sg10
F-30.948
sg11
F0.0018078199999999999
sg12
F0.001376087145748988
sg13
F0.00081715397773279353
sg14
F23.427937424466226
sg15
F23.438485296092384
sg16
F23.42079360816436
sg17
F23.426198469182214
sg18
F23.417308983483274
sg19
F0.00015196510121457489
sa(dp210
g3
F17.364000000000001
sg4
F0.00037580900000000001
sg5
F147.31800000000001
sg6
F4.9654599999999997e-05
sg7
F4.5901400000000001e-05
sg8
F-22.212
sg9
F0.00040846491902834012
sg10
F-30.954000000000001
sg11
F0.0018078199999999999
sg12
F0.0013757562753036437
sg13
F0.00081711572874493927
sg14
F23.52639989257419
sg15
F23.530757351953799
sg16
F23.520478044850275
sg17
F23.518732375453197
sg18
F23.51977977709144
sg19
F0.00015196963562753035
sa(dp211
g3
F17.405999999999999
sg4
F0.00037577900000000002
sg5
F147.37799999999999
sg6
F4.9678800000000003e-05
sg7
F4.5860399999999999e-05
sg8
F-22.199999999999999
sg9
F0.0004084746457489879
sg10
F-30.942
sg11
F0.0018078199999999999
sg12
F0.0013755442307692308
sg13
F0.00081706709514170039
sg14
F23.632180743923723
sg15
F23.64011011145428
sg16
F23.625909762320401
sg17
F23.632006176984017
sg18
F23.621988720290044
sg19
F0.00015197007085020244
sa(dp212
g3
F17.448
sg4
F0.00037572000000000001
sg5
F147.38399999999999
sg6
F4.9701199999999998e-05
sg7
F4.58269e-05
sg8
F-22.199999999999999
sg9
F0.00040845606275303646
sg10
F-30.942
sg11
F0.0018077
sg12
F0.001375196052631579
sg13
F0.00081697890688259116
sg14
F23.728810259164767
sg15
F23.732301597958909
sg16
F23.728467839398412
sg17
F23.728722975694907
sg18
F23.725587484893243
sg19
F0.00015198303643724698
sa(dp213
g3
F17.495999999999999
sg4
F0.00037568999999999998
sg5
F147.42599999999999
sg6
F4.9732899999999999e-05
sg7
F4.5793400000000001e-05
sg8
F-22.199999999999999
sg9
F0.0004084558400809717
sg10
F-30.942
sg11
F0.0018077
sg12
F0.0013749257085020243
sg13
F0.00081692789473684219
sg14
F23.830495501544238
sg15
F23.829978514838196
sg16
F23.825882905868134
sg17
F23.830320934604533
sg18
F23.819605210151739
sg19
F0.00015197028340080973
sa(dp214
g3
F17.532
sg4
F0.00037563000000000001
sg5
F147.47999999999999
sg6
F4.9764500000000001e-05
sg7
F4.5726300000000003e-05
sg8
F-22.193999999999999
sg9
F0.00040844871457489877
sg10
F-30.942
sg11
F0.00180758
sg12
F0.0013746423076923078
sg13
F0.00081687386639676116
sg14
F23.929568953941178
sg15
F23.935584799248023
sg16
F23.924338659863029
sg17
F23.925298778031429
sg18
F23.920068483953262
sg19
F0.00015197115384615385
sa(dp215
g3
F17.579999999999998
sg4
F0.000375571
sg5
F147.52199999999999
sg6
F4.97981e-05
sg7
F4.5692799999999997e-05
sg8
F-22.181999999999999
sg9
F0.00040842169028340082
sg10
F-30.942
sg11
F0.0018074600000000001
sg12
F0.0013742465587044533
sg13
F0.0008167917307692307
sg14
F24.033003861003859
sg15
F24.040030888030874
sg16
F24.02159073359072
sg17
F24.026795366795373
sg18
F24.018378378378376
sg19
F0.00015196358299595142
sa(dp216
g3
F17.585999999999999
sg4
F0.000375571
sg5
F147.55199999999999
sg6
F4.97981e-05
sg7
F4.56816e-05
sg8
F-22.187999999999999
sg9
F0.00040842018218623484
sg10
F-30.936
sg11
F0.00180758
sg12
F0.0013739934210526316
sg13
F0.00081674547570850201
sg14
F24.134625482625488
sg15
F24.141436293436296
sg16
F24.118193050193064
sg17
F24.124602316602331
sg18
F24.118594594594601
sg19
F0.00015196314777327937
sa(dp217
g3
F17.622
sg4
F0.00037554100000000001
sg5
F147.56999999999999
sg6
F4.9818499999999997e-05
sg7
F4.5655499999999997e-05
sg8
F-22.175999999999998
sg9
F0.00040841953441295549
sg10
F-30.93
sg11
F0.00180758
sg12
F0.0013737663967611337
sg13
F0.00081668474696356276
sg14
F24.236447876447869
sg15
F24.239845559845545
sg16
F24.226625482625465
sg17
F24.228231660231657
sg18
F24.224818532818524
sg19
F0.00015196034412955466
sa(dp218
g3
F17.652000000000001
sg4
F0.00037548099999999999
sg5
F147.58799999999999
sg6
F4.9827899999999998e-05
sg7
F4.5623900000000002e-05
sg8
F-22.175999999999998
sg9
F0.00040841909919028346
sg10
F-30.923999999999999
sg11
F0.00180758
sg12
F0.0013734462550607288
sg13
F0.00081664323886639675
sg14
F24.332046332046346
sg15
F24.345281853281847
sg16
F24.31701930501929
sg17
F24.319613899613891
sg18
F24.315613899613886
sg19
F0.00015197136639676114
sa(dp219
g3
F17.681999999999999
sg4
F0.00037548099999999999
sg5
F147.61799999999999
sg6
F4.9848300000000002e-05
sg7
F4.56015e-05
sg8
F-22.175999999999998
sg9
F0.00040840008097165994
sg10
F-30.93
sg11
F0.00180758
sg12
F0.0013732256072874493
sg13
F0.00081657148785425101
sg14
F24.426455598455593
sg15
F24.429050193050195
sg16
F24.417235521235515
sg17
F24.424247104247112
sg18
F24.414424710424711
sg19
F0.0001519730971659919
sa(dp220
g3
F17.712
sg4
F0.00037545200000000002
sg5
F147.66
sg6
F4.9874399999999998e-05
sg7
F4.55736e-05
sg8
F-22.164000000000001
sg9
F0.00040841110323886642
sg10
F-30.93
sg11
F0.00180758
sg12
F0.0013729573886639677
sg13
F0.00081652306680161956
sg14
F24.536679536679554
sg15
F24.541698841698839
sg16
F24.523861003861011
sg17
F24.527459459459443
sg18
F24.516833976833965
sg19
F0.00015196228744939272
sa(dp221
g3
F17.754000000000001
sg4
F0.000375392
sg5
F147.696
sg6
F4.9883699999999998e-05
sg7
F4.5538199999999997e-05
sg8
F-22.164000000000001
sg9
F0.00040840851214574901
sg10
F-30.936
sg11
F0.00180758
sg12
F0.0013726221659919029
sg13
F0.00081647573886639677
sg14
F24.628679536679535
sg15
F24.63528957528959
sg16
F24.623073359073373
sg17
F24.622270270270263
sg18
F24.616447876447864
sg19
F0.00015196660931174092
sa(dp222
g3
F17.783999999999999
sg4
F0.00037536200000000002
sg5
F147.732
sg6
F4.9911699999999999e-05
sg7
F4.5506500000000002e-05
sg8
F-22.164000000000001
sg9
F0.00040839532388663966
sg10
F-30.936
sg11
F0.0018074600000000001
sg12
F0.0013722696356275304
sg13
F0.00081640679149797577
sg14
F24.732293436293439
sg15
F24.738115830115834
sg16
F24.731907335907351
sg17
F24.733297297297302
sg18
F24.723274131274149
sg19
F0.00015197222672064779
sa(dp223
g3
F17.826000000000001
sg4
F0.00037533199999999998
sg5
F147.774
sg6
F4.9939599999999999e-05
sg7
F4.5461799999999999e-05
sg8
F-22.146000000000001
sg9
F0.00040838624493927123
sg10
F-30.936
sg11
F0.0018074600000000001
sg12
F0.0013719321862348179
sg13
F0.00081631989878542513
sg14
F24.829111969111985
sg15
F24.834316602316605
sg16
F24.821899613899603
sg17
F24.825498069498067
sg18
F24.818084942084933
sg19
F0.00015196942307692309
sa(dp224
g3
F17.873999999999999
sg4
F0.00037527300000000002
sg5
F147.822
sg6
F4.9967599999999999e-05
sg7
F4.5426400000000003e-05
sg8
F-22.140000000000001
sg9
F0.00040837803643724698
sg10
F-30.923999999999999
sg11
F0.0018074600000000001
sg12
F0.0013716467611336032
sg13
F0.00081626176113360318
sg14
F24.929528957528962
sg15
F24.931722007721991
sg16
F24.927119691119696
sg17
F24.929127413127425
sg18
F24.922702702702701
sg19
F0.00015196185222672066
sa(dp225
g3
F17.904
sg4
F0.00037524299999999998
sg5
F147.852
sg6
F4.9982499999999998e-05
sg7
F4.5387299999999998e-05
sg8
F-22.140000000000001
sg9
F0.00040838084008097171
sg10
F-30.923999999999999
sg11
F0.0018074600000000001
sg12
F0.0013713460526315791
sg13
F0.00081618503036437245
sg14
F25.043957783641165
sg15
F25.048759894459099
sg16
F25.023746701846946
sg17
F25.037783641160924
sg18
F25.023060686015821
sg19
F0.00015196660931174092
sa(dp226
g3
F17.940000000000001
sg4
F0.000375213
sg5
F147.88200000000001
sg6
F4.9989900000000001e-05
sg7
F4.5363099999999999e-05
sg8
F-22.140000000000001
sg9
F0.00040836939271255064
sg10
F-30.917999999999999
sg11
F0.0018074600000000001
sg12
F0.0013709999999999998
sg13
F0.00081612753036437247
sg14
F25.144960422163571
sg15
F25.147704485488127
sg16
F25.130923482849592
sg17
F25.140184696569925
sg18
F25.129551451187343
sg19
F0.00015196704453441297
sa(dp227
g3
F17.969999999999999
sg4
F0.00037518300000000002
sg5
F147.89400000000001
sg6
F5.0001099999999998e-05
sg7
F4.5337000000000003e-05
sg8
F-22.134
sg9
F0.00040836441295546565
sg10
F-30.923999999999999
sg11
F0.0018073399999999999
sg12
F0.0013707101214574897
sg13
F0.00081605555668016203
sg14
F25.235699208443272
sg15
F25.235699208443272
sg16
F25.222005277044886
sg17
F25.227836411609477
sg18
F25.229894459102908
sg19
F0.00015197115384615385
sa(dp228
g3
F17.988
sg4
F0.00037512400000000001
sg5
F147.91800000000001
sg6
F5.0017800000000001e-05
sg7
F4.5316499999999999e-05
sg8
F-22.134
sg9
F0.00040834798582995953
sg10
F-30.93
sg11
F0.0018073399999999999
sg12
F0.001370415991902834
sg13
F0.00081599677125506072
sg14
F25.336728232189962
sg15
F25.349050131926099
sg16
F25.322348284960452
sg17
F25.332269129287621
sg18
F25.327810026385222
sg19
F0.00015195558704453441
sa(dp229
g3
F18.036000000000001
sg4
F0.00037512400000000001
sg5
F147.94800000000001
sg6
F5.0036500000000001e-05
sg7
F4.5281100000000003e-05
sg8
F-22.122
sg9
F0.00040834431174089069
sg10
F-30.917999999999999
sg11
F0.0018073399999999999
sg12
F0.001370098076923077
sg13
F0.00081594575910931175
sg14
F25.434643799472276
sg15
F25.436015831134583
sg16
F25.426094986807414
sg17
F25.428496042216381
sg18
F25.425751978891824
sg19
F0.0001519557995951417
sa(dp230
g3
F18.047999999999998
sg4
F0.00037506399999999999
sg5
F147.98400000000001
sg6
F5.00514e-05
sg7
F4.5253200000000002e-05
sg8
F-22.128
sg9
F0.00040833502024291494
sg10
F-30.917999999999999
sg11
F0.0018073399999999999
sg12
F0.0013697974696356276
sg13
F0.00081586600202429149
sg14
F25.537387862796812
sg15
F25.538416886543526
sg16
F25.526754617414227
sg17
F25.534300791556721
sg18
F25.521635883904992
sg19
F0.00015195667004048584
sa(dp231
g3
F18.077999999999999
sg4
F0.000375034
sg5
F148.02000000000001
sg6
F5.00793e-05
sg7
F4.5227099999999999e-05
sg8
F-22.116
sg9
F0.0004083056275303644
sg10
F-30.911999999999999
sg11
F0.0018073399999999999
sg12
F0.0013694016194331984
sg13
F0.00081579252024291502
sg14
F25.634617414248055
sg15
F25.628812664907638
sg16
F25.623667546174168
sg17
F25.62675461741426
sg18
F25.618179419525053
sg19
F0.00015194909919028342
sa(dp232
g3
F18.108000000000001
sg4
F0.00037500400000000002
sg5
F148.05600000000001
sg6
F5.0090499999999998e-05
sg7
F4.5189899999999999e-05
sg8
F-22.109999999999999
sg9
F0.00040829525303643721
sg10
F-30.917999999999999
sg11
F0.0018073399999999999
sg12
F0.0013691269230769231
sg13
F0.00081571600202429151
sg14
F25.735646437994749
sg15
F25.728443271767791
sg16
F25.724327176780982
sg17
F25.732216358839064
sg18
F25.729129287598973
sg19
F0.0001519573178137652
sa(dp233
g3
F18.155999999999999
sg4
F0.00037497499999999999
sg5
F148.10400000000001
sg6
F5.0112799999999999e-05
sg7
F4.5154500000000003e-05
sg8
F-22.097999999999999
sg9
F0.00040828876518218625
sg10
F-30.911999999999999
sg11
F0.00180722
sg12
F0.0013687137651821862
sg13
F0.00081563668016194338
sg14
F25.831846965699221
sg15
F25.84625329815302
sg16
F25.825013192612143
sg17
F25.836649076517151
sg18
F25.819525065963084
sg19
F0.00015195277327935224
sa(dp234
g3
F18.192
sg4
F0.00037491500000000002
sg5
F148.13399999999999
sg6
F5.0129600000000002e-05
sg7
F4.5113500000000001e-05
sg8
F-22.097999999999999
sg9
F0.00040827147773279352
sg10
F-30.905999999999999
sg11
F0.00180722
sg12
F0.0013684175101214575
sg13
F0.00081558092105263162
sg14
F25.941424802110831
sg15
F25.941767810026423
sg16
F25.928759894459105
sg17
F25.930474934036948
sg18
F25.924300791556764
sg19
F0.00015196725708502024
sa(dp235
g3
F18.222000000000001
sg4
F0.00037491500000000002
sg5
F148.16999999999999
sg6
F5.0140799999999999e-05
sg7
F4.5104200000000001e-05
sg8
F-22.091999999999999
sg9
F0.0004082775303643725
sg10
F-30.905999999999999
sg11
F0.00180722
sg12
F0.0013679957489878545
sg13
F0.00081548732793522264
sg14
F26.04371488764048
sg15
F26.050561797752859
sg16
F26.027317415730383
sg17
F26.036903089887669
sg18
F26.031425561797779
sg19
F0.00015195191295546559
sa(dp236
g3
F18.234000000000002
sg4
F0.000374855
sg5
F148.19399999999999
sg6
F5.0157500000000002e-05
sg7
F4.5078099999999998e-05
sg8
F-22.091999999999999
sg9
F0.00040826131578947371
sg10
F-30.905999999999999
sg11
F0.0018071000000000001
sg12
F0.0013677145748987856
sg13
F0.00081542291497975711
sg14
F26.131671348314615
sg15
F26.1362359550562
sg16
F26.133040730337104
sg17
F26.132584269662914
sg18
F26.133497191011216
sg19
F0.00015195407894736843
sa(dp237
g3
F18.27
sg4
F0.000374855
sg5
F148.22399999999999
sg6
F5.0164999999999998e-05
sg7
F4.5037100000000003e-05
sg8
F-22.074000000000002
sg9
F0.00040825396761133608
sg10
F-30.899999999999999
sg11
F0.00180722
sg12
F0.0013674657894736843
sg13
F0.00081535569838056684
sg14
F26.238764044943828
sg15
F26.224192415730336
sg16
F26.220997191011239
sg17
F26.219171348314635
sg18
F26.215976123595539
sg19
F0.00015195191295546559
sa(dp238
g3
F18.300000000000001
sg4
F0.00037479599999999999
sg5
F148.25999999999999
sg6
F5.0166900000000002e-05
sg7
F4.50204e-05
sg8
F-22.085999999999999
sg9
F0.00040824164979757089
sg10
F-30.905999999999999
sg11
F0.00180722
sg12
F0.0013670137651821863
sg13
F0.00081528069838056685
sg14
F26.323981741573057
sg15
F26.333988764044964
sg16
F26.314852528089883
sg17
F26.321699438202263
sg18
F26.334901685393266
sg19
F0.00015194262145748987
sa(dp239
g3
F18.318000000000001
sg4
F0.00037476600000000001
sg5
F148.28399999999999
sg6
F5.0192899999999998e-05
sg7
F4.4990600000000003e-05
sg8
F-22.074000000000002
sg9
F0.00040822392712550613
sg10
F-30.893999999999998
sg11
F0.00180722
sg12
F0.0013666698380566801
sg13
F0.00081518538461538463
sg14
F26.422858146067398
sg15
F26.446102528089877
sg16
F26.421032303370794
sg17
F26.431039325842701
sg18
F26.423314606741588
sg19
F0.00015194802631578948
sa(dp240
g3
F18.366
sg4
F0.00037473600000000003
sg5
F148.31999999999999
sg6
F5.0209700000000001e-05
sg7
F4.4966299999999997e-05
sg8
F-22.062000000000001
sg9
F0.00040821808704453441
sg10
F-30.893999999999998
sg11
F0.00180722
sg12
F0.0013663778340080972
sg13
F0.00081513437246963567
sg14
F26.539957865168596
sg15
F26.534023876404518
sg16
F26.52127808988763
sg17
F26.525842696629216
sg18
F26.52173455056182
sg19
F0.00015193613360323888
sa(dp241
g3
F18.396000000000001
sg4
F0.00037470599999999999
sg5
F148.34399999999999
sg6
F5.0220899999999999e-05
sg7
F4.4932799999999998e-05
sg8
F-22.056000000000001
sg9
F0.00040821031376518224
sg10
F-30.899999999999999
sg11
F0.0018071000000000001
sg12
F0.0013660167004048585
sg13
F0.00081504380566801613
sg14
F26.643398876404525
sg15
F26.63883426966294
sg16
F26.623806179775336
sg17
F26.634726123595541
sg18
F26.62061095505624
sg19
F0.00015193721659919029
sa(dp242
g3
F18.420000000000002
sg4
F0.00037467700000000002
sg5
F148.374
sg6
F5.0239499999999999e-05
sg7
F4.4904899999999998e-05
sg8
F-22.056000000000001
sg9
F0.0004081960425101215
sg10
F-30.899999999999999
sg11
F0.0018071000000000001
sg12
F0.0013656662955465588
sg13
F0.0008149720546558705
sg14
F26.730898876404549
sg15
F26.731355337078661
sg16
F26.728616573033754
sg17
F26.731355337078661
sg18
F26.721313202247185
sg19
F0.00015195126518218624
sa(dp243
g3
F18.456
sg4
F0.00037461699999999999
sg5
F148.404
sg6
F5.0248799999999999e-05
sg7
F4.4878800000000001e-05
sg8
F-22.056000000000001
sg9
F0.00040819388663967618
sg10
F-30.893999999999998
sg11
F0.0018069799999999999
sg12
F0.0013653115384615385
sg13
F0.00081490029352226728
sg14
F26.833883426966288
sg15
F26.846629213483176
sg16
F26.83023174157308
sg17
F26.82292837078651
sg18
F26.827492977528099
sg19
F0.00015194239878542511
sa(dp244
g3
F18.521999999999998
sg4
F0.00037458700000000001
sg5
F148.44
sg6
F5.0256300000000002e-05
sg7
F4.4826700000000002e-05
sg8
F-22.050000000000001
sg9
F0.00040818286437246964
sg10
F-30.893999999999998
sg11
F0.0018071000000000001
sg12
F0.0013650065789473685
sg13
F0.00081483264170040487
sg14
F26.935042134831502
sg15
F26.928651685393312
sg16
F26.925000000000026
sg17
F26.924087078651723
sg18
F26.914992977528119
sg19
F0.00015194715587044534
sa(dp245
g3
F18.521999999999998
sg4
F0.00037455700000000003
sg5
F148.5
sg6
F5.02861e-05
sg7
F4.4817300000000002e-05
sg8
F-22.050000000000001
sg9
F0.00040816318825910938
sg10
F-30.893999999999998
sg11
F0.0018071000000000001
sg12
F0.0013646129554655869
sg13
F0.00081473494939271257
sg14
F27.02900795311848
sg15
F27.037170364169157
sg16
F27.020887400586041
sg17
F27.030096274591884
sg18
F27.020887400586041
sg19
F0.00015193116396761133
sa(dp246
g3
F18.57
sg4
F0.000374528
sg5
F148.512
sg6
F5.0308400000000001e-05
sg7
F4.4804300000000001e-05
sg8
F-22.044
sg9
F0.00040815022267206479
sg10
F-30.888000000000002
sg11
F0.0018069799999999999
sg12
F0.0013642690283400809
sg13
F0.00081465713562753036
sg14
F27.144746755964867
sg15
F27.140937630807905
sg16
F27.126789451653458
sg17
F27.132231059020572
sg18
F27.116492256174205
sg19
F0.00015192252024291499
sa(dp247
g3
F18.582000000000001
sg4
F0.00037449800000000002
sg5
F148.554
sg6
F5.0297199999999997e-05
sg7
F4.4759599999999997e-05
sg8
F-22.038
sg9
F0.00040812839068825915
sg10
F-30.882000000000001
sg11
F0.0018071000000000001
sg12
F0.0013639597165991905
sg13
F0.00081458818825910935
sg14
F27.220259522812956
sg15
F27.247928003348726
sg16
F27.218627040602801
sg17
F27.218627040602801
sg18
F27.215906236919242
sg19
F0.00015191776315789474
sa(dp248
g3
F18.606000000000002
sg4
F0.00037446799999999998
sg5
F148.578
sg6
F5.0315899999999997e-05
sg7
F4.4731699999999997e-05
sg8
F-22.026
sg9
F0.0004081240688259109
sg10
F-30.888000000000002
sg11
F0.0018069799999999999
sg12
F0.001363537955465587
sg13
F0.00081449935222672066
sg14
F27.342444537463397
sg15
F27.350062787777322
sg16
F27.328338216827181
sg17
F27.336500627877765
sg18
F27.322352448723318
sg19
F0.0001519236032388664
sa(dp249
g3
F18.629999999999999
sg4
F0.000374438
sg5
F148.602
sg6
F5.03326e-05
sg7
F4.4707399999999998e-05
sg8
F-22.026
sg9
F0.00040810310728744937
sg10
F-30.882000000000001
sg11
F0.0018069799999999999
sg12
F0.0013631962550607287
sg13
F0.00081443213562753039
sg14
F27.4233989116786
sg15
F27.453285893679414
sg16
F27.424487233152004
sg17
F27.448932607785704
sg18
F27.419589786521637
sg19
F0.00015192619433198381
sa(dp250
g3
F18.66
sg4
F0.00037440800000000001
sg5
F148.63200000000001
sg6
F5.0336400000000001e-05
sg7
F4.4675799999999997e-05
sg8
F-22.013999999999999
sg9
F0.0004081002935222672
sg10
F-30.876000000000001
sg11
F0.0018069799999999999
sg12
F0.0013628804655870445
sg13
F0.0008143370344129555
sg14
F27.532063624947718
sg15
F27.536416910841428
sg16
F27.521180410213482
sg17
F27.532063624947718
sg18
F27.513562159899557
sg19
F0.00015192727732793522
sa(dp251
g3
F18.690000000000001
sg4
F0.00037437899999999999
sg5
F148.67400000000001
sg6
F5.0349400000000003e-05
sg7
F4.46497e-05
sg8
F-22.013999999999999
sg9
F0.00040807803643724697
sg10
F-30.882000000000001
sg11
F0.0018069799999999999
sg12
F0.0013625344129554657
sg13
F0.00081427132591093126
sg14
F27.660234407702024
sg15
F27.626580159062385
sg16
F27.63419840937631
sg17
F27.629845123482692
sg18
F27.622771033905423
sg19
F0.0001519251113360324
sa(dp252
g3
F18.725999999999999
sg4
F0.00037431900000000002
sg5
F148.70400000000001
sg6
F5.03699e-05
sg7
F4.4623599999999997e-05
sg8
F-22.001999999999999
sg9
F0.00040806570850202429
sg10
F-30.870000000000001
sg11
F0.00180686
sg12
F0.0013620888663967612
sg13
F0.00081417298582995949
sg14
F27.751527835914619
sg15
F27.75316031812477
sg16
F27.749895353704556
sg17
F27.722729175387208
sg18
F27.716743407283435
sg19
F0.00015191085020242916
sa(dp253
g3
F18.762
sg4
F0.00037428899999999998
sg5
F148.74000000000001
sg6
F5.03792e-05
sg7
F4.4595699999999997e-05
sg8
F-21.995999999999999
sg9
F0.00040804777327935226
sg10
F-30.870000000000001
sg11
F0.00180686
sg12
F0.0013618184210526317
sg13
F0.00081410511133603238
sg14
F27.835705316031895
sg15
F27.847132691502786
sg16
F27.8259522812893
sg17
F27.834072833821743
sg18
F27.81234826287151
sg19
F0.00015190997975708502
sa(dp254
g3
F18.786000000000001
sg4
F0.000374259
sg5
F148.77600000000001
sg6
F5.0394099999999999e-05
sg7
F4.4562199999999998e-05
sg8
F-21.989999999999998
sg9
F0.0004080421558704453
sg10
F-30.870000000000001
sg11
F0.00180686
sg12
F0.0013614681174089068
sg13
F0.00081401411943319841
sg14
F27.937840100460491
sg15
F27.93131017161997
sg16
F27.92101297614072
sg17
F27.93131017161997
sg18
F27.943825868564264
sg19
F0.00015190738866396761
sa(dp255
g3
F18.815999999999999
sg4
F0.00037423000000000003
sg5
F148.80600000000001
sg6
F5.0396000000000003e-05
sg7
F4.4543499999999998e-05
sg8
F-21.984000000000002
sg9
F0.00040802982793522268
sg10
F-30.864000000000001
sg11
F0.00180686
sg12
F0.0013610766194331984
sg13
F0.00081393220647773287
sg14
F28.029768518518523
sg15
F28.075462962963019
sg16
F28.033981481481479
sg17
F28.04541666666676
sg18
F28.024398148148205
sg19
F0.00015190803643724696
sa(dp256
g3
F18.852
sg4
F0.00037417
sg5
F148.83600000000001
sg6
F5.0412699999999999e-05
sg7
F4.45044e-05
sg8
F-21.984000000000002
sg9
F0.00040801189271255064
sg10
F-30.864000000000001
sg11
F0.00180686
sg12
F0.0013606764170040486
sg13
F0.00081386887651821872
sg14
F28.131944444444478
sg15
F28.146944444444497
sg16
F28.115694444444447
sg17
F28.116898148148238
sg18
F28.112685185185178
sg19
F0.00015190241902834009
sa(dp257
g3
F18.870000000000001
sg4
F0.00037414000000000002
sg5
F148.87200000000001
sg6
F5.0416400000000001e-05
sg7
F4.4474600000000003e-05
sg8
F-21.989999999999998
sg9
F0.00040801103238866397
sg10
F-30.870000000000001
sg11
F0.00180674
sg12
F0.0013603347165991905
sg13
F0.00081377463562753028
sg14
F28.240694444444436
sg15
F28.228055555555567
sg16
F28.234675925926002
sg17
F28.244259259259273
sg18
F28.237083333333374
sg19
F0.00015191020242914981
sa(dp258
g3
F18.882000000000001
sg4
F0.00037410999999999998
sg5
F148.89599999999999
sg6
F5.0435100000000001e-05
sg7
F4.4450399999999997e-05
sg8
F-21.972000000000001
sg9
F0.00040800151821862352
sg10
F-30.864000000000001
sg11
F0.00180674
sg12
F0.0013600491902834009
sg13
F0.00081371044534412956
sg14
F28.341018518518585
sg15
F28.360231481481456
sg16
F28.322407407407404
sg17
F28.359629629629666
sg18
F28.345231481481541
sg19
F0.00015190782388663966
sa(dp259
g3
F18.936
sg4
F0.00037408100000000001
sg5
F148.93199999999999
sg6
F5.0442499999999997e-05
sg7
F4.4422499999999997e-05
sg8
F-21.978000000000002
sg9
F0.00040798098178137653
sg10
F-30.852
sg11
F0.0018066200000000001
sg12
F0.0013596165991902835
sg13
F0.00081360172064777339
sg14
F28.430509259259246
sg15
F28.457546296296339
sg16
F28.422731481481449
sg17
F28.449768518518542
sg18
F28.419722222222283
sg19
F0.00015190004048582997
sa(dp260
g3
F18.948
sg4
F0.00037408100000000001
sg5
F148.96199999999999
sg6
F5.0455599999999999e-05
sg7
F4.4398199999999998e-05
sg8
F-21.960000000000001
sg9
F0.00040796974696356278
sg10
F-30.852
sg11
F0.00180674
sg12
F0.001359300809716599
sg13
F0.00081355417004048578
sg14
F28.536296296296257
sg15
F28.55310185185186
sg16
F28.518842592592645
sg17
F28.542870370370366
sg18
F28.547685185185216
sg19
F0.00015189636639676115
sa(dp261
g3
F18.978000000000002
sg4
F0.00037402099999999999
sg5
F148.99199999999999
sg6
F5.0463000000000001e-05
sg7
F4.4379599999999998e-05
sg8
F-21.960000000000001
sg9
F0.00040796607287449393
sg10
F-30.858000000000001
sg11
F0.00180674
sg12
F0.0013589418016194334
sg13
F0.0008134616700404859
sg14
F28.631805555555559
sg15
F28.642638888888843
sg16
F28.626990740740709
sg17
F28.636018518518512
sg18
F28.6017592592593
sg19
F0.00015189917004048583
sa(dp262
g3
F19.013999999999999
sg4
F0.000373991
sg5
F149.02799999999999
sg6
F5.0466700000000003e-05
sg7
F4.4338600000000003e-05
sg8
F-21.966000000000001
sg9
F0.00040794856275303644
sg10
F-30.852
sg11
F0.0018066200000000001
sg12
F0.0013585438259109313
sg13
F0.00081337348178137656
sg14
F28.729722222222232
sg15
F28.733333333333292
sg16
F28.723750000000017
sg17
F28.714722222222214
sg18
F28.719537037037064
sg19
F0.00015189787449392713
sa(dp263
g3
F19.038
sg4
F0.00037396100000000002
sg5
F149.03999999999999
sg6
F5.04779e-05
sg7
F4.43126e-05
sg8
F-21.954000000000001
sg9
F0.00040793300607287449
sg10
F-30.852
sg11
F0.0018065100000000001
sg12
F0.0013581652834008097
sg13
F0.00081329113360323899
sg14
F28.837870370370396
sg15
F28.839675925925878
sg16
F28.816249999999947
sg17
F28.842083333333353
sg18
F28.829490740740706
sg19
F0.0001518913967611336
sa(dp264
g3
F19.062000000000001
sg4
F0.00037390200000000001
sg5
F149.08799999999999
sg6
F5.0489099999999997e-05
sg7
F4.4284599999999999e-05
sg8
F-21.948
sg9
F0.00040792263157894741
sg10
F-30.846
sg11
F0.0018066200000000001
sg12
F0.0013578041497975708
sg13
F0.00081321634615384611
sg14
F28.925000000000008
sg15
F28.976064814814823
sg16
F28.915370370370308
sg17
F28.966481481481445
sg18
F28.941249999999933
sg19
F0.00015188923076923079
sa(dp265
g3
F19.097999999999999
sg4
F0.00037390200000000001
sg5
F149.13
sg6
F5.0500300000000002e-05
sg7
F4.4258500000000003e-05
sg8
F-21.942
sg9
F0.00040791117408906885
sg10
F-30.846
sg11
F0.0018065100000000001
sg12
F0.0013573801619433199
sg13
F0.00081312838056680169
sg14
F29.02711948438273
sg15
F29.039365394149705
sg16
F29.011056023797678
sg17
F29.040009915716436
sg18
F29.046455131383176
sg19
F0.0001518887955465587
sa(dp266
g3
F19.122
sg4
F0.00037387199999999997
sg5
F149.16
sg6
F5.0509600000000002e-05
sg7
F4.4224999999999998e-05
sg8
F-21.936
sg9
F0.00040789647773279358
sg10
F-30.84
sg11
F0.0018065100000000001
sg12
F0.0013570492914979759
sg13
F0.00081304603238866401
sg14
F29.128160634605823
sg15
F29.161626177491353
sg16
F29.109519087754077
sg17
F29.148091224590917
sg18
F29.119137332672274
sg19
F0.00015189549595141701
sa(dp267
g3
F19.140000000000001
sg4
F0.00037384199999999999
sg5
F149.178
sg6
F5.0513300000000003e-05
sg7
F4.42045e-05
sg8
F-21.93
sg9
F0.00040788328947368422
sg10
F-30.846
sg11
F0.0018065100000000001
sg12
F0.0013566793522267208
sg13
F0.00081296540485829957
sg14
F29.238820029747117
sg15
F29.273574615765995
sg16
F29.215022310361867
sg17
F29.251710461080823
sg18
F29.241398116013812
sg19
F0.00015188685222672065
sa(dp268
g3
F19.175999999999998
sg4
F0.00037378299999999998
sg5
F149.202
sg6
F5.0533800000000001e-05
sg7
F4.4178499999999997e-05
sg8
F-21.923999999999999
sg9
F0.00040787377530364377
sg10
F-30.84
sg11
F0.0018063899999999999
sg12
F0.0013562640688259112
sg13
F0.00081287549595141699
sg14
F29.327615270203236
sg15
F29.335349529003437
sg16
F29.319881011403034
sg17
F29.326970748636615
sg18
F29.331482399603392
sg19
F0.00015187820850202428
sa(dp269
g3
F19.193999999999999
sg4
F0.000373753
sg5
F149.268
sg6
F5.0524500000000001e-05
sg7
F4.4148599999999999e-05
sg8
F-21.923999999999999
sg9
F0.00040786037449392715
sg10
F-30.834
sg11
F0.0018065100000000001
sg12
F0.0013559721659919029
sg13
F0.00081280308704453441
sg14
F29.424144769459556
sg15
F29.458849776896351
sg16
F29.410609816559234
sg17
F29.455676747645008
sg18
F29.440208230044604
sg19
F0.00015188512145748989
sa(dp270
g3
F19.23
sg4
F0.00037372300000000001
sg5
F149.274
sg6
F5.0548699999999999e-05
sg7
F4.4128200000000002e-05
sg8
F-21.923999999999999
sg9
F0.00040784870445344132
sg10
F-30.846
sg11
F0.0018065100000000001
sg12
F0.0013555741902834008
sg13
F0.00081273219635627535
sg14
F29.532870599900882
sg15
F29.579176995537921
sg16
F29.509717402082249
sg17
F29.550867625185898
sg18
F29.514823996033673
sg19
F0.00015188296558704453
sa(dp271
g3
F19.248000000000001
sg4
F0.00037372300000000001
sg5
F149.31
sg6
F5.0550599999999997e-05
sg7
F4.4102099999999999e-05
sg8
F-21.911999999999999
sg9
F0.00040783055668016196
sg10
F-30.846
sg11
F0.0018063899999999999
sg12
F0.0013552150809716598
sg13
F0.00081262822874493936
sg14
F29.623599405056968
sg15
F29.651264253842374
sg16
F29.626822012890393
sg17
F29.638373822508669
sg18
F29.609419930590025
sg19
F0.0001518756174089069
sa(dp272
g3
F19.265999999999998
sg4
F0.00037366299999999999
sg5
F149.346
sg6
F5.0567299999999999e-05
sg7
F4.4064799999999999e-05
sg8
F-21.911999999999999
sg9
F0.00040782428137651827
sg10
F-30.827999999999999
sg11
F0.0018063899999999999
sg12
F0.0013548041497975709
sg13
F0.00081254220647773278
sg14
F29.732325235498294
sg15
F29.754833911750083
sg16
F29.723946455131362
sg17
F29.747744174516612
sg18
F29.717501239464511
sg19
F0.00015188577935222673
sa(dp273
g3
F19.314
sg4
F0.00037360399999999998
sg5
F149.38800000000001
sg6
F5.0567299999999999e-05
sg7
F4.4036899999999998e-05
sg8
F-21.893999999999998
sg9
F0.00040781196356275303
sg10
F-30.821999999999999
sg11
F0.00180627
sg12
F0.0013544082995951418
sg13
F0.00081245898785425093
sg14
F29.847496281606361
sg15
F29.852007932573134
sg16
F29.830788299454582
sg17
F29.833316807139305
sg18
F29.806296479920629
sg19
F0.00015187107287449394
sa(dp274
g3
F19.332000000000001
sg4
F0.00037360399999999998
sg5
F149.41200000000001
sg6
F5.0582199999999998e-05
sg7
F4.4014499999999997e-05
sg8
F-21.893999999999998
sg9
F0.00040778775303643725
sg10
F-30.821999999999999
sg11
F0.0018063899999999999
sg12
F0.0013540839068825912
sg13
F0.00081236496963562753
sg14
F29.936291522062479
sg15
F29.969112543381279
sg16
F29.92726822012893
sg17
F29.967178978681201
sg18
F29.931135349528976
sg19
F0.00015186589068825912
sa(dp275
g3
F19.350000000000001
sg4
F0.00037354400000000001
sg5
F149.45400000000001
sg6
F5.0582199999999998e-05
sg7
F4.3984699999999999e-05
sg8
F-21.882000000000001
sg9
F0.00040777067813765183
sg10
F-30.821999999999999
sg11
F0.0018063899999999999
sg12
F0.0013536383603238867
sg13
F0.00081226078947368432
sg14
F30.027708333333322
sg15
F30.064895833333296
sg16
F30.018229166666671
sg17
F30.02906249999997
sg18
F30.047968750000024
sg19
F0.00015186632591093118
sa(dp276
g3
F19.391999999999999
sg4
F0.00037351399999999997
sg5
F149.47800000000001
sg6
F5.0591499999999998e-05
sg7
F4.3958700000000003e-05
sg8
F-21.888000000000002
sg9
F0.0004077484210526316
sg10
F-30.827999999999999
sg11
F0.00180627
sg12
F0.00135321012145749
sg13
F0.00081217476720647774
sg14
F30.130416666666722
sg15
F30.138541666666725
sg16
F30.130416666666722
sg17
F30.117604166666641
sg18
F30.101354166666635
sg19
F0.00015186826923076923
sa(dp277
g3
F19.404
sg4
F0.00037348500000000001
sg5
F149.51400000000001
sg6
F5.05953e-05
sg7
F4.39326e-05
sg8
F-21.888000000000002
sg9
F0.00040772723684210526
sg10
F-30.827999999999999
sg11
F0.00180627
sg12
F0.0013527817813765181
sg13
F0.00081207361336032386
sg14
F30.236562500000048
sg15
F30.273072916666639
sg16
F30.212239583333403
sg17
F30.256145833333367
sg18
F30.2352083333334
sg19
F0.00015185161943319839
sa(dp278
g3
F19.434000000000001
sg4
F0.00037348500000000001
sg5
F149.55600000000001
sg6
F5.05953e-05
sg7
F4.3906499999999997e-05
sg8
F-21.876000000000001
sg9
F0.00040772702429149799
sg10
F-30.815999999999999
sg11
F0.00180627
sg12
F0.0013524595141700404
sg13
F0.00081199861336032388
sg14
F30.323750000000071
sg15
F30.3366145833334
sg16
F30.306875000000048
sg17
F30.345364583333303
sg18
F30.329166666666662
sg19
F0.00015185075910931176
sa(dp279
g3
F19.457999999999998
sg4
F0.00037345500000000002
sg5
F149.56800000000001
sg6
F5.06046e-05
sg7
F4.3880400000000001e-05
sg8
F-21.870000000000001
sg9
F0.00040770713562753041
sg10
F-30.809999999999999
sg11
F0.00180627
sg12
F0.0013520356275303644
sg13
F0.00081189572874493937
sg14
F30.428541666666632
sg15
F30.437968750000035
sg16
F30.414322916666656
sg17
F30.43119791666668
sg18
F30.40416666666674
sg19
F0.0001518539979757085
sa(dp280
g3
F19.488
sg4
F0.00037342499999999998
sg5
F149.61600000000001
sg6
F5.0625099999999997e-05
sg7
F4.3843200000000001e-05
sg8
F-21.870000000000001
sg9
F0.00040769481781376517
sg10
F-30.815999999999999
sg11
F0.00180627
sg12
F0.0013517046558704454
sg13
F0.00081180452429149797
sg14
F30.529218750000002
sg15
F30.535989583333357
sg16
F30.510312500000065
sg17
F30.544791666666743
sg18
F30.517760416666686
sg19
F0.00015184687246963562
sa(dp281
g3
F19.518000000000001
sg4
F0.00037336500000000001
sg5
F149.65199999999999
sg6
F5.06325e-05
sg7
F4.3817099999999998e-05
sg8
F-21.852
sg9
F0.00040767536437246967
sg10
F-30.803999999999998
sg11
F0.0018061500000000001
sg12
F0.0013512591093117409
sg13
F0.0008117096356275303
sg14
F30.638750000000005
sg15
F30.646822916666643
sg16
F30.628593749999972
sg17
F30.639427083333388
sg18
F30.613020833333351
sg19
F0.00015185443319838058
sa(dp282
g3
F19.553999999999998
sg4
F0.00037330600000000001
sg5
F149.67599999999999
sg6
F5.0640000000000003e-05
sg7
F4.3772400000000001e-05
sg8
F-21.852
sg9
F0.00040767947368421049
sg10
F-30.815999999999999
sg11
F0.0018061500000000001
sg12
F0.0013508827935222673
sg13
F0.0008116495445344129
sg14
F30.723229166666734
sg15
F30.748229166666643
sg16
F30.697552083333328
sg17
F30.734687500000049
sg18
F30.725937500000029
sg19
F0.00015184578947368421
sa(dp283
g3
F19.620000000000001
sg4
F0.00037330600000000001
sg5
F149.70599999999999
sg6
F5.0652999999999998e-05
sg7
F4.3753800000000001e-05
sg8
F-21.846
sg9
F0.00040767471659919032
sg10
F-30.809999999999999
sg11
F0.0018061500000000001
sg12
F0.001350530263157895
sg13
F0.00081156763157894736
sg14
F30.83812500000008
sg15
F30.895572916666755
sg16
F30.818541666666647
sg17
F30.883437500000056
sg18
F30.808385416666727
sg19
F0.00015184384615384616
sa(dp284
g3
F19.614000000000001
sg4
F0.00037327600000000002
sg5
F149.76599999999999
sg6
F5.0658600000000003e-05
sg7
F4.3735100000000001e-05
sg8
F-21.84
sg9
F0.00040766304655870443
sg10
F-30.797999999999998
sg11
F0.0018061500000000001
sg12
F0.0013501798582995952
sg13
F0.00081148981781376526
sg14
F30.92531249999999
sg15
F30.940208333333345
sg16
F30.928697916666668
sg17
F30.924635416666721
sg18
F30.96453124999999
sg19
F0.0001518434109311741
sa(dp285
g3
F19.643999999999998
sg4
F0.000373216
sg5
F149.76599999999999
sg6
F5.0665999999999999e-05
sg7
F4.3716500000000001e-05
sg8
F-21.84
sg9
F0.00040764553643724699
sg10
F-30.809999999999999
sg11
F0.0018060299999999999
sg12
F0.0013498640688259108
sg13
F0.00081142087044534415
sg14
F31.029166666666754
sg15
F31.040367965367984
sg16
F31.011580086580118
sg17
F31.034794372294382
sg18
F31.003192640692703
sg19
F0.00015184514170040486
sa(dp286
g3
F19.661999999999999
sg4
F0.000373216
sg5
F149.79599999999999
sg6
F5.0665999999999999e-05
sg7
F4.3681099999999998e-05
sg8
F-21.827999999999999
sg9
F0.00040764294534412958
sg10
F-30.803999999999998
sg11
F0.0018061500000000001
sg12
F0.0013494206477732795
sg13
F0.00081132923076923083
sg14
F31.137987012987072
sg15
F31.182251082251149
sg16
F31.114123376623439
sg17
F31.155573593073584
sg18
F31.126082251082327
sg19
F0.00015185054655870444
sa(dp287
g3
F19.692
sg4
F0.00037318699999999998
sg5
F149.83799999999999
sg6
F5.0680899999999998e-05
sg7
F4.3664400000000002e-05
sg8
F-21.827999999999999
sg9
F0.00040761679149797574
sg10
F-30.797999999999998
sg11
F0.0018061500000000001
sg12
F0.0013491092105263158
sg13
F0.00081124731781376518
sg14
F31.220887445887481
sg15
F31.256709956710001
sg16
F31.221590909090995
sg17
F31.241937229437298
sg18
F31.204004329004359
sg19
F0.00015183865384615385
sa(dp288
g3
F19.716000000000001
sg4
F0.00037315699999999999
sg5
F149.86199999999999
sg6
F5.0680899999999998e-05
sg7
F4.3636400000000001e-05
sg8
F-21.834
sg9
F0.00040762111336032389
sg10
F-30.797999999999998
sg11
F0.0018061500000000001
sg12
F0.001348763157894737
sg13
F0.00081119219635627528
sg14
F31.337445887445966
sg15
F31.366937229437223
sg16
F31.317803030303054
sg17
F31.369047619047642
sg18
F31.320562770562844
sg19
F0.00015184794534412957
sa(dp289
g3
F19.722000000000001
sg4
F0.00037312700000000001
sg5
F149.892
sg6
F5.0688400000000001e-05
sg7
F4.3608500000000001e-05
sg8
F-21.821999999999999
sg9
F0.00040760944331983805
sg10
F-30.797999999999998
sg11
F0.0018060299999999999
sg12
F0.0013484581983805668
sg13
F0.00081110185222672067
sg14
F31.437175324675351
sg15
F31.475811688311683
sg16
F31.42380952380956
sg17
F31.437175324675351
sg18
F31.416774891774907
sg19
F0.00015183476720647773
sa(dp290
g3
F19.763999999999999
sg4
F0.00037312700000000001
sg5
F149.934
sg6
F5.0699599999999998e-05
sg7
F4.3586099999999999e-05
sg8
F-21.809999999999999
sg9
F0.00040760252024291501
sg10
F-30.792000000000002
sg11
F0.0018061500000000001
sg12
F0.0013480450404858299
sg13
F0.00081103073886639669
sg14
F31.523538961038945
sg15
F31.548106060606091
sg16
F31.522835497835551
sg17
F31.533387445887413
sg18
F31.51791125541132
sg19
F0.00015183757085020244
sa(dp291
g3
F19.776
sg4
F0.00037306699999999998
sg5
F149.964
sg6
F5.0693999999999999e-05
sg7
F4.35619e-05
sg8
F-21.809999999999999
sg9
F0.00040758847165991904
sg10
F-30.803999999999998
sg11
F0.0018060299999999999
sg12
F0.0013476946356275304
sg13
F0.00081094925101214579
sg14
F31.619751082251128
sg15
F31.673809523809528
sg16
F31.628192640692689
sg17
F31.656277056277037
sg18
F31.632413419913409
sg19
F0.00015184038461538464
sa(dp292
g3
F19.800000000000001
sg4
F0.00037306699999999998
sg5
F149.988
sg6
F5.07033e-05
sg7
F4.3541400000000003e-05
sg8
F-21.803999999999998
sg9
F0.00040757032388663968
sg10
F-30.792000000000002
sg11
F0.0018060299999999999
sg12
F0.0013472988866396762
sg13
F0.00081086280364372468
sg14
F31.734902597402584
sg15
F31.727922077922074
sg16
F31.722294372294449
sg17
F31.729274891774956
sg18
F31.715259740259793
sg19
F0.00015182784412955466
sa(dp293
g3
F19.818000000000001
sg4
F0.00037303800000000002
sg5
F150.018
sg6
F5.0695799999999997e-05
sg7
F4.3511599999999999e-05
sg8
F-21.803999999999998
sg9
F0.00040755346153846154
sg10
F-30.786000000000001
sg11
F0.0018060299999999999
sg12
F0.0013469441295546557
sg13
F0.00081078909919028339
sg14
F31.840259740259718
sg15
F31.858495670995723
sg16
F31.828300865800831
sg17
F31.858495670995723
sg18
F31.837445887445906
sg19
F0.00015183282388663968
sa(dp294
g3
F19.835999999999999
sg4
F0.00037300799999999998
sg5
F150.042
sg6
F5.0708899999999998e-05
sg7
F4.3485500000000002e-05
sg8
F-21.797999999999998
sg9
F0.00040755367408906886
sg10
F-30.780000000000001
sg11
F0.0018060299999999999
sg12
F0.0013465915991902834
sg13
F0.00081070739878542518
sg14
F31.941396103896132
sg15
F31.944913419913458
sg16
F31.919588744588779
sg17
F31.92803030303034
sg18
F31.956818181818203
sg19
F0.00015183714574898785
sa(dp295
g3
F19.847999999999999
sg4
F0.00037294800000000001
sg5
F150.078
sg6
F5.0714499999999997e-05
sg7
F4.3463200000000001e-05
sg8
F-21.797999999999998
sg9
F0.00040753984817813764
sg10
F-30.792000000000002
sg11
F0.0018060299999999999
sg12
F0.0013462238866396761
sg13
F0.00081062158906882592
sg14
F32.016991643454062
sg15
F32.06835654596096
sg16
F32.024958217270168
sg17
F32.062562674094742
sg18
F32.048077994428958
sg19
F0.00015182914979757086
sa(dp296
g3
F19.872
sg4
F0.00037294800000000001
sg5
F150.096
sg6
F5.07126e-05
sg7
F4.3439000000000002e-05
sg8
F-21.797999999999998
sg9
F0.00040752514170040488
sg10
F-30.786000000000001
sg11
F0.0018060299999999999
sg12
F0.0013458561740890688
sg13
F0.00081052799595141695
sg14
F32.12763231197777
sg15
F32.178941504178226
sg16
F32.107409470752089
sg17
F32.169582172702
sg18
F32.106685236768868
sg19
F0.00015183692307692309
sa(dp297
g3
F19.908000000000001
sg4
F0.000372889
sg5
F150.13800000000001
sg6
F5.0714499999999997e-05
sg7
F4.34073e-05
sg8
F-21.786000000000001
sg9
F0.00040751498987854257
sg10
F-30.780000000000001
sg11
F0.00180591
sg12
F0.0013454669028340083
sg13
F0.00081046034412955465
sg14
F32.242562674094692
sg15
F32.274373259052929
sg16
F32.22523676880224
sg17
F32.270083565459586
sg18
F32.256323119777143
sg19
F0.00015181984817813765
sa(dp298
g3
F19.914000000000001
sg4
F0.000372889
sg5
F150.16800000000001
sg6
F5.07219e-05
sg7
F4.3392400000000001e-05
sg8
F-21.786000000000001
sg9
F0.00040749769230769234
sg10
F-30.786000000000001
sg11
F0.00180591
sg12
F0.001345084008097166
sg13
F0.00081036027327935226
sg14
F32.33008356545961
sg15
F32.362618384401181
sg16
F32.315598885793825
sg17
F32.358272980501397
sg18
F32.347409470752062
sg19
F0.0001518230971659919
sa(dp299
g3
F19.931999999999999
sg4
F0.00037285900000000002
sg5
F150.21000000000001
sg6
F5.0718199999999998e-05
sg7
F4.3364500000000001e-05
sg8
F-21.780000000000001
sg9
F0.00040748818825910932
sg10
F-30.780000000000001
sg11
F0.00180591
sg12
F0.0013447790485829961
sg13
F0.00081028570850202419
sg14
F32.429136490250762
sg15
F32.484066852367661
sg16
F32.427688022284087
sg17
F32.45442896935932
sg18
F32.441392757660211
sg19
F0.00015182417004048584
sa(dp300
g3
F19.937999999999999
sg4
F0.00037285900000000002
sg5
F150.22200000000001
sg6
F5.0723799999999997e-05
sg7
F4.3336500000000001e-05
sg8
F-21.780000000000001
sg9
F0.00040747370445344132
sg10
F-30.792000000000002
sg11
F0.00180591
sg12
F0.0013443832995951417
sg13
F0.00081020271255060727
sg14
F32.535376044568245
sg15
F32.564289693593373
sg16
F32.512256267409455
sg17
F32.562896935933132
sg18
F32.522395543175449
sg19
F0.00015181942307692308
sa(dp301
g3
F19.968
sg4
F0.00037279899999999999
sg5
F150.25800000000001
sg6
F5.0733099999999997e-05
sg7
F4.3316000000000003e-05
sg8
F-21.768000000000001
sg9
F0.00040744777327935224
sg10
F-30.786000000000001
sg11
F0.00180591
sg12
F0.001343968016194332
sg13
F0.00081011431174089071
sg14
F32.635153203342611
sg15
F32.667688022284182
sg16
F32.610584958217267
sg17
F32.649637883008396
sg18
F32.650362116991609
sg19
F0.0001518070951417004
sa(dp302
g3
F19.986000000000001
sg4
F0.00037276900000000001
sg5
F150.28800000000001
sg6
F5.0727499999999998e-05
sg7
F4.3288100000000003e-05
sg8
F-21.768000000000001
sg9
F0.00040744172064777326
sg10
F-30.774000000000001
sg11
F0.00180591
sg12
F0.0013435894736842106
sg13
F0.00081003109311740887
sg14
F32.740724233983315
sg15
F32.760947075208875
sg16
F32.721225626740967
sg17
F32.786295264623995
sg18
F32.713259052924741
sg19
F0.00015181920040485832
sa(dp303
g3
F20.010000000000002
sg4
F0.00037273999999999999
sg5
F150.31200000000001
sg6
F5.0738700000000003e-05
sg7
F4.32713e-05
sg8
F-21.762
sg9
F0.00040743696356275309
sg10
F-30.774000000000001
sg11
F0.00180591
sg12
F0.0013432672064777327
sg13
F0.00080995350202429158
sg14
F32.828189415041791
sg15
F32.842674094707576
sg16
F32.828189415041791
sg17
F32.861448467966575
sg18
F32.852089136490235
sg19
F0.0001518057995951417
sa(dp304
g3
F20.021999999999998
sg4
F0.00037273999999999999
sg5
F150.34200000000001
sg6
F5.0746099999999999e-05
sg7
F4.3250900000000003e-05
sg8
F-21.762
sg9
F0.00040741448380566799
sg10
F-30.774000000000001
sg11
F0.00180591
sg12
F0.0013429514170040487
sg13
F0.00080987568825910937
sg14
F32.930863509749265
sg15
F32.977158774373279
sg16
F32.9128133704736
sg17
F32.961949860724282
sg18
F32.967019498607286
sg19
F0.00015181034412955466
sa(dp305
g3
F20.045999999999999
sg4
F0.00037271
sg5
F150.37200000000001
sg6
F5.0738700000000003e-05
sg7
F4.3213600000000002e-05
sg8
F-21.75
sg9
F0.0004074114574898786
sg10
F-30.768000000000001
sg11
F0.00180591
sg12
F0.0013426183198380565
sg13
F0.00080980782388663975
sg14
F33.035122786978832
sg15
F33.044031981724693
sg16
F33.022501427755515
sg17
F33.029925756710426
sg18
F33.015876641918915
sg19
F0.0001518055870445344
sa(dp306
g3
F20.052
sg4
F0.00037268000000000002
sg5
F150.39599999999999
sg6
F5.07312e-05
sg7
F4.3193099999999998e-05
sg8
F-21.75
sg9
F0.00040739740890688257
sg10
F-30.774000000000001
sg11
F0.00180579
sg12
F0.0013422463562753038
sg13
F0.00080971272267206474
sg14
F33.134437464306103
sg15
F33.18926327812683
sg16
F33.122558537978328
sg17
F33.174471730439784
sg18
F33.140376927470058
sg19
F0.00015180126518218623
sa(dp307
g3
F20.064
sg4
F0.00037261999999999999
sg5
F150.43199999999999
sg6
F5.0735000000000001e-05
sg7
F4.3170799999999997e-05
sg8
F-21.744
sg9
F0.00040737925101214572
sg10
F-30.774000000000001
sg11
F0.00180579
sg12
F0.0013417985829959516
sg13
F0.00080962453441295551
sg14
F33.238949171901787
sg15
F33.29229011993143
sg16
F33.203369503141104
sg17
F33.233009708737839
sg18
F33.207081667618553
sg19
F0.0001518099089068826
sa(dp308
g3
F20.094000000000001
sg4
F0.00037259000000000001
sg5
F150.46799999999999
sg6
F5.0736799999999998e-05
sg7
F4.3148400000000002e-05
sg8
F-21.75
sg9
F0.00040737125506072874
sg10
F-30.780000000000001
sg11
F0.00180579
sg12
F0.0013414114372469635
sg13
F0.00080954456477732792
sg14
F33.324900057110206
sg15
F33.346430611079377
sg16
F33.307881210736781
sg17
F33.341976013706514
sg18
F33.324900057110206
sg19
F0.0001518086133603239
sa(dp309
g3
F20.100000000000001
sg4
F0.00037259000000000001
sg5
F150.49799999999999
sg6
F5.0742399999999997e-05
sg7
F4.3120500000000002e-05
sg8
F-21.75
sg9
F0.00040736174089068828
sg10
F-30.774000000000001
sg11
F0.00180579
sg12
F0.0013410826923076922
sg13
F0.00080946027327935218
sg14
F33.426442033123969
sg15
F33.480582524271796
sg16
F33.420502569960021
sg17
F33.439805825242701
sg18
F33.406453455168517
sg19
F0.00015179607287449392
sa(dp310
g3
F20.123999999999999
sg4
F0.00037256099999999999
sg5
F150.52199999999999
sg6
F5.0742399999999997e-05
sg7
F4.3092500000000001e-05
sg8
F-21.738
sg9
F0.00040735439271255059
sg10
F-30.756
sg11
F0.00180579
sg12
F0.0013407646761133603
sg13
F0.00080937532388663971
sg14
F33.524271844660163
sg15
F33.592461450599622
sg16
F33.527984009137612
sg17
F33.568760708166707
sg18
F33.530211307824111
sg19
F0.00015180753036437249
sa(dp311
g3
F20.141999999999999
sg4
F0.00037256099999999999
sg5
F150.55199999999999
sg6
F5.07405e-05
sg7
F4.3075799999999998e-05
sg8
F-21.738
sg9
F0.0004073345141700405
sg10
F-30.762
sg11
F0.0018056700000000001
sg12
F0.0013403991902834009
sg13
F0.0008092763360323887
sg14
F33.619131924614443
sg15
F33.67549971444889
sg16
F33.621359223300935
sg17
F33.672529982866976
sg18
F33.608052541404845
sg19
F0.0001518057995951417
sa(dp312
g3
F20.141999999999999
sg4
F0.000372531
sg5
F150.59999999999999
sg6
F5.0738700000000003e-05
sg7
F4.3042199999999999e-05
sg8
F-21.738
sg9
F0.00040731246963562754
sg10
F-30.756
sg11
F0.0018056700000000001
sg12
F0.0013399817813765185
sg13
F0.00080919073886639677
sg14
F33.759965733866345
sg15
F33.741462021701842
sg16
F33.731067961165024
sg17
F33.711821816105115
sg18
F33.72364363221012
sg19
F0.00015179974696356274
sa(dp313
g3
F20.166
sg4
F0.00037250100000000002
sg5
F150.61799999999999
sg6
F5.0751699999999997e-05
sg7
F4.3019899999999998e-05
sg8
F-21.725999999999999
sg9
F0.00040730057692307695
sg10
F-30.756
sg11
F0.0018056700000000001
sg12
F0.0013395729757085021
sg13
F0.00080911379554655873
sg14
F33.876356367789803
sg15
F33.822958309537391
sg16
F33.858537978298081
sg17
F33.814106225014299
sg18
F33.817018846373443
sg19
F0.00015179197368421051
sa(dp314
g3
F20.196000000000002
sg4
F0.00037247099999999998
sg5
F150.654
sg6
F5.0746099999999999e-05
sg7
F4.3003100000000002e-05
sg8
F-21.719999999999999
sg9
F0.0004072956072874494
sg10
F-30.75
sg11
F0.00180579
sg12
F0.0013391944331983805
sg13
F0.00080901134615384614
sg14
F33.931182181610531
sg15
F33.947458595088534
sg16
F33.918560822387214
sg17
F33.936379211878936
sg18
F33.913420902341443
sg19
F0.00015178786437246964
sa(dp315
g3
F20.219999999999999
sg4
F0.00037244099999999999
sg5
F150.684
sg6
F5.0744300000000001e-05
sg7
F4.29715e-05
sg8
F-21.719999999999999
sg9
F0.00040726728744939269
sg10
F-30.744
sg11
F0.0018056700000000001
sg12
F0.0013387726720647773
sg13
F0.00080892921052631579
sg14
F34.069778296382665
sg15
F34.025845974328988
sg16
F34.046324387397874
sg17
F34.023570595099216
sg18
F34.013768961493589
sg19
F0.00015179066801619434
sa(dp316
g3
F20.225999999999999
sg4
F0.00037241200000000003
sg5
F150.702
sg6
F5.07405e-05
sg7
F4.2945399999999997e-05
sg8
F-21.707999999999998
sg9
F0.00040725691295546556
sg10
F-30.75
sg11
F0.0018056700000000001
sg12
F0.0013384525303643724
sg13
F0.00080883670040485841
sg14
F34.124270711785307
sg15
F34.162135355892616
sg16
F34.10460910151685
sg17
F34.115985997666243
sg18
F34.107642940490102
sg19
F0.0001517869939271255
sa(dp317
g3
F20.244
sg4
F0.00037238199999999999
sg5
F150.738
sg6
F5.0748000000000003e-05
sg7
F4.29249e-05
sg8
F-21.707999999999998
sg9
F0.00040724913967611338
sg10
F-30.756
sg11
F0.0018056700000000001
sg12
F0.0013380394736842104
sg13
F0.00080874332995951425
sg14
F34.238623103850571
sg15
F34.269661610268294
sg16
F34.220420070011592
sg17
F34.268903150525084
sg18
F34.21814469078182
sg19
F0.0001517766194331984
sa(dp318
g3
F20.238
sg4
F0.00037238199999999999
sg5
F150.768
sg6
F5.07405e-05
sg7
F4.2917399999999997e-05
sg8
F-21.707999999999998
sg9
F0.00040723313765182186
sg10
F-30.75
sg11
F0.0018056700000000001
sg12
F0.0013376523279352228
sg13
F0.0008086538461538461
sg14
F34.315869311551879
sg15
F34.3749124854142
sg16
F34.306767794632385
sg17
F34.3749124854142
sg18
F34.321878646441036
sg19
F0.00015177792510121457
sa(dp319
g3
F20.274000000000001
sg4
F0.000372352
sg5
F150.804
sg6
F5.07499e-05
sg7
F4.2885800000000002e-05
sg8
F-21.702000000000002
sg9
F0.00040722881578947372
sg10
F-30.75
sg11
F0.0018056700000000001
sg12
F0.0013372435222672066
sg13
F0.00080857647773279362
sg14
F34.432438739789966
sg15
F34.429404900816849
sg16
F34.413535589264853
sg17
F34.436989498249645
sg18
F34.465752625437595
sg19
F0.0001517764068825911
sa(dp320
g3
F20.280000000000001
sg4
F0.00037229199999999998
sg5
F150.828
sg6
F5.0742399999999997e-05
sg7
F4.2861600000000003e-05
sg8
F-21.702000000000002
sg9
F0.00040719272267206478
sg10
F-30.731999999999999
sg11
F0.0018056700000000001
sg12
F0.0013368628542510122
sg13
F0.00080846516194331983
sg14
F34.528588098016378
sg15
F34.586931155192573
sg16
F34.508926487747921
sg17
F34.567211201866904
sg18
F34.541481913652206
sg19
F0.00015176841093117409
sa(dp321
g3
F20.309999999999999
sg4
F0.00037229199999999998
sg5
F150.858
sg6
F5.0738700000000003e-05
sg7
F4.2829900000000001e-05
sg8
F-21.690000000000001
sg9
F0.00040719445344129552
sg10
F-30.738
sg11
F0.0018056700000000001
sg12
F0.001336441093117409
sg13
F0.00080837156882591096
sg14
F34.618728121353506
sg15
F34.67246207701281
sg16
F34.619486581096851
sg17
F34.663360560093317
sg18
F34.620245040840068
sg19
F0.00015176387651821862
sa(dp322
g3
F20.315999999999999
sg4
F0.00037226300000000001
sg5
F150.90000000000001
sg6
F5.0746099999999999e-05
sg7
F4.2809399999999997e-05
sg8
F-21.690000000000001
sg9
F0.00040717759109311743
sg10
F-30.731999999999999
sg11
F0.00180555
sg12
F0.0013360171052631579
sg13
F0.00080828101214574892
sg14
F34.726954492415324
sg15
F34.779229871645271
sg16
F34.711843640606801
sg17
F34.761026837806291
sg18
F34.717152858809825
sg19
F0.00015176192307692307
sa(dp323
g3
F20.327999999999999
sg4
F0.00037223300000000003
sg5
F150.91800000000001
sg6
F5.0742399999999997e-05
sg7
F4.2783300000000001e-05
sg8
F-21.696000000000002
sg9
F0.00040716808704453446
sg10
F-30.744
sg11
F0.00180555
sg12
F0.0013356667004048584
sg13
F0.00080819066801619442
sg14
F34.839031505250816
sg15
F34.870828471411876
sg16
F34.823162193698948
sg17
F34.870070011668531
sg18
F34.827712952158628
sg19
F0.00015175997975708501
sa(dp324
g3
F20.334
sg4
F0.00037220299999999999
sg5
F150.96000000000001
sg6
F5.07405e-05
sg7
F4.2759100000000002e-05
sg8
F-21.684000000000001
sg9
F0.00040714755060728748
sg10
F-30.738
sg11
F0.0018056700000000001
sg12
F0.0013352038461538461
sg13
F0.00080810680161943333
sg14
F34.924620770128392
sg15
F34.946557759626621
sg16
F34.931388564760766
sg17
F34.940490081680252
sg18
F34.935939323220573
sg19
F0.00015176841093117409
sa(dp325
g3
F20.364000000000001
sg4
F0.000372173
sg5
F150.99000000000001
sg6
F5.07405e-05
sg7
F4.2731200000000002e-05
sg8
F-21.678000000000001
sg9
F0.00040713155870445344
sg10
F-30.731999999999999
sg11
F0.00180555
sg12
F0.0013348838056680163
sg13
F0.00080800326923076936
sg14
F35.038109393579013
sg15
F35.086741973840624
sg16
F35.025802615933429
sg17
F35.076694411415012
sg18
F35.014982164090405
sg19
F0.00015176408906882592
sa(dp326
g3
F20.370000000000001
sg4
F0.00037214300000000002
sg5
F151.02000000000001
sg6
F5.0736799999999998e-05
sg7
F4.2705099999999999e-05
sg8
F-21.678000000000001
sg9
F0.00040711469635627536
sg10
F-30.731999999999999
sg11
F0.00180555
sg12
F0.0013344101214574897
sg13
F0.00080791724696356278
sg14
F35.138406658739619
sg15
F35.167776456599299
sg16
F35.115279429250876
sg17
F35.166230677764595
sg18
F35.15077288941734
sg19
F0.00015176538461538462
sa(dp327
g3
F20.382000000000001
sg4
F0.00037214300000000002
sg5
F151.05600000000001
sg6
F5.0729400000000003e-05
sg7
F4.2679000000000003e-05
sg8
F-21.684000000000001
sg9
F0.00040710237854251012
sg10
F-30.725999999999999
sg11
F0.00180555
sg12
F0.0013339796558704455
sg13
F0.00080780118421052631
sg14
F35.236444708680118
sg15
F35.279607609988069
sg16
F35.227942925089202
sg17
F35.276516052318669
sg18
F35.231034482758602
sg19
F0.00015175047570850202
sa(dp328
g3
F20.393999999999998
sg4
F0.000372114
sg5
F151.08600000000001
sg6
F5.0727499999999998e-05
sg7
F4.2658499999999998e-05
sg8
F-21.666
sg9
F0.0004070814068825911
sg10
F-30.731999999999999
sg11
F0.00180555
sg12
F0.0013335946356275302
sg13
F0.00080771061740890688
sg14
F35.344411414982211
sg15
F35.382223543400656
sg16
F35.31200951248514
sg17
F35.383769322235487
sg18
F35.330558858501789
sg19
F0.00015175976720647775
sa.