(lp1
(dp2
S'Theta2'
p3
F0.39600000000000002
sS'R4'
p4
F0.00042793300000000002
sS'Theta1'
p5
F89.682000000000002
sS'R1'
p6
F2.8679299999999998e-05
sS'R2'
p7
F9.1482400000000004e-05
sS'Theta4'
p8
F-22.806000000000001
sS'Drive Current RMS4'
p9
F0.0004091191801619433
sS'Theta8'
p10
F-31.044
sS'R8'
p11
F0.00186206
sS'Drive Current RMS1'
p12
F0.0013994206477732794
sS'Drive Current RMS2'
p13
F0.00082202555668016192
sS'Temperature4'
p14
F4.4103467862481329
sS'Temperature5'
p15
F4.4114319880418513
sS'Temperature2'
p16
F4.4070493273542608
sS'Temperature3'
p17
F4.4083288490283987
sS'Temperature1'
p18
F4.4055754857996972
sS'Drive Current RMS8'
p19
F0.00015212136639676115
sa.